
bin/EmotionClass.axf:     file format elf32-littlearm


Disassembly of section .text:

0000c000 <g_am_pfnVectors>:
    c000:	00 10 00 10 79 d5 00 00 6d d5 00 00 cd cd 00 00     ....y...m.......
    c010:	71 d5 00 00 71 d5 00 00 71 d5 00 00 00 00 00 00     q...q...q.......
	...
    c02c:	a1 d3 00 00 75 d5 00 00 00 00 00 00 11 d4 00 00     ....u...........
    c03c:	75 d4 00 00 75 d5 00 00 75 d5 00 00 75 d5 00 00     u...u...u...u...
    c04c:	75 d5 00 00 75 d5 00 00 75 d5 00 00 75 d5 00 00     u...u...u...u...
    c05c:	75 d5 00 00 75 d5 00 00 75 d5 00 00 75 d5 00 00     u...u...u...u...
    c06c:	75 d5 00 00 75 d5 00 00 25 cd 00 00 75 d5 00 00     u...u...%...u...
    c07c:	75 d5 00 00 75 d5 00 00 75 d5 00 00 75 d5 00 00     u...u...u...u...
    c08c:	75 d5 00 00 75 d5 00 00 75 d5 00 00 75 d5 00 00     u...u...u...u...
    c09c:	21 d5 00 00 41 d5 00 00 75 d5 00 00 75 d5 00 00     !...A...u...u...
    c0ac:	75 d5 00 00 75 d5 00 00 75 d5 00 00 75 d5 00 00     u...u...u...u...
    c0bc:	75 d5 00 00                                         u...

0000c0c0 <__Patchable>:
	...

0000c100 <sqrt>:
    c100:	b538      	push	{r3, r4, r5, lr}
    c102:	ed2d 8b02 	vpush	{d8}
    c106:	ec55 4b10 	vmov	r4, r5, d0
    c10a:	f000 f833 	bl	c174 <__ieee754_sqrt>
    c10e:	4b18      	ldr	r3, [pc, #96]	; (c170 <sqrt+0x70>)
    c110:	eeb0 8a40 	vmov.f32	s16, s0
    c114:	eef0 8a60 	vmov.f32	s17, s1
    c118:	f993 3000 	ldrsb.w	r3, [r3]
    c11c:	3301      	adds	r3, #1
    c11e:	d00d      	beq.n	c13c <sqrt+0x3c>
    c120:	4622      	mov	r2, r4
    c122:	462b      	mov	r3, r5
    c124:	4620      	mov	r0, r4
    c126:	4629      	mov	r1, r5
    c128:	f000 fd4c 	bl	cbc4 <__aeabi_dcmpun>
    c12c:	b930      	cbnz	r0, c13c <sqrt+0x3c>
    c12e:	4620      	mov	r0, r4
    c130:	4629      	mov	r1, r5
    c132:	2200      	movs	r2, #0
    c134:	2300      	movs	r3, #0
    c136:	f000 fd1d 	bl	cb74 <__aeabi_dcmplt>
    c13a:	b930      	cbnz	r0, c14a <sqrt+0x4a>
    c13c:	eeb0 0a48 	vmov.f32	s0, s16
    c140:	eef0 0a68 	vmov.f32	s1, s17
    c144:	ecbd 8b02 	vpop	{d8}
    c148:	bd38      	pop	{r3, r4, r5, pc}
    c14a:	f000 f8df 	bl	c30c <__errno>
    c14e:	2200      	movs	r2, #0
    c150:	2300      	movs	r3, #0
    c152:	2121      	movs	r1, #33	; 0x21
    c154:	6001      	str	r1, [r0, #0]
    c156:	4610      	mov	r0, r2
    c158:	4619      	mov	r1, r3
    c15a:	f000 fbc3 	bl	c8e4 <__aeabi_ddiv>
    c15e:	ec41 0b18 	vmov	d8, r0, r1
    c162:	eeb0 0a48 	vmov.f32	s0, s16
    c166:	eef0 0a68 	vmov.f32	s1, s17
    c16a:	ecbd 8b02 	vpop	{d8}
    c16e:	bd38      	pop	{r3, r4, r5, pc}
    c170:	10001000 	.word	0x10001000

0000c174 <__ieee754_sqrt>:
    c174:	e92d 41f0 	stmdb	sp!, {r4, r5, r6, r7, r8, lr}
    c178:	4963      	ldr	r1, [pc, #396]	; (c308 <__ieee754_sqrt+0x194>)
    c17a:	ec55 4b10 	vmov	r4, r5, d0
    c17e:	43a9      	bics	r1, r5
    c180:	f000 809f 	beq.w	c2c2 <__ieee754_sqrt+0x14e>
    c184:	2d00      	cmp	r5, #0
    c186:	462b      	mov	r3, r5
    c188:	ee10 2a10 	vmov	r2, s0
    c18c:	dd52      	ble.n	c234 <__ieee754_sqrt+0xc0>
    c18e:	ea5f 5e25 	movs.w	lr, r5, asr #20
    c192:	f000 80b1 	beq.w	c2f8 <__ieee754_sqrt+0x184>
    c196:	f3c3 0313 	ubfx	r3, r3, #0, #20
    c19a:	f2ae 3eff 	subw	lr, lr, #1023	; 0x3ff
    c19e:	f443 1380 	orr.w	r3, r3, #1048576	; 0x100000
    c1a2:	0fd1      	lsrs	r1, r2, #31
    c1a4:	f01e 0f01 	tst.w	lr, #1
    c1a8:	eb01 0343 	add.w	r3, r1, r3, lsl #1
    c1ac:	ea4f 0442 	mov.w	r4, r2, lsl #1
    c1b0:	d003      	beq.n	c1ba <__ieee754_sqrt+0x46>
    c1b2:	0fe4      	lsrs	r4, r4, #31
    c1b4:	eb04 0343 	add.w	r3, r4, r3, lsl #1
    c1b8:	0094      	lsls	r4, r2, #2
    c1ba:	f04f 0c00 	mov.w	ip, #0
    c1be:	ea4f 0e6e 	mov.w	lr, lr, asr #1
    c1c2:	4666      	mov	r6, ip
    c1c4:	2516      	movs	r5, #22
    c1c6:	f44f 1200 	mov.w	r2, #2097152	; 0x200000
    c1ca:	18b1      	adds	r1, r6, r2
    c1cc:	4299      	cmp	r1, r3
    c1ce:	dc02      	bgt.n	c1d6 <__ieee754_sqrt+0x62>
    c1d0:	1a5b      	subs	r3, r3, r1
    c1d2:	188e      	adds	r6, r1, r2
    c1d4:	4494      	add	ip, r2
    c1d6:	005b      	lsls	r3, r3, #1
    c1d8:	3d01      	subs	r5, #1
    c1da:	eb03 73d4 	add.w	r3, r3, r4, lsr #31
    c1de:	ea4f 0252 	mov.w	r2, r2, lsr #1
    c1e2:	ea4f 0444 	mov.w	r4, r4, lsl #1
    c1e6:	d1f0      	bne.n	c1ca <__ieee754_sqrt+0x56>
    c1e8:	462f      	mov	r7, r5
    c1ea:	2020      	movs	r0, #32
    c1ec:	f04f 4200 	mov.w	r2, #2147483648	; 0x80000000
    c1f0:	e009      	b.n	c206 <__ieee754_sqrt+0x92>
    c1f2:	d041      	beq.n	c278 <__ieee754_sqrt+0x104>
    c1f4:	0fe1      	lsrs	r1, r4, #31
    c1f6:	3801      	subs	r0, #1
    c1f8:	ea4f 0252 	mov.w	r2, r2, lsr #1
    c1fc:	eb01 0343 	add.w	r3, r1, r3, lsl #1
    c200:	ea4f 0444 	mov.w	r4, r4, lsl #1
    c204:	d041      	beq.n	c28a <__ieee754_sqrt+0x116>
    c206:	42b3      	cmp	r3, r6
    c208:	eb02 0105 	add.w	r1, r2, r5
    c20c:	ddf1      	ble.n	c1f2 <__ieee754_sqrt+0x7e>
    c20e:	2900      	cmp	r1, #0
    c210:	eb01 0502 	add.w	r5, r1, r2
    c214:	db09      	blt.n	c22a <__ieee754_sqrt+0xb6>
    c216:	46b0      	mov	r8, r6
    c218:	1b9b      	subs	r3, r3, r6
    c21a:	42a1      	cmp	r1, r4
    c21c:	bf88      	it	hi
    c21e:	f103 33ff 	addhi.w	r3, r3, #4294967295	; 0xffffffff
    c222:	1a64      	subs	r4, r4, r1
    c224:	4417      	add	r7, r2
    c226:	4646      	mov	r6, r8
    c228:	e7e4      	b.n	c1f4 <__ieee754_sqrt+0x80>
    c22a:	2d00      	cmp	r5, #0
    c22c:	dbf3      	blt.n	c216 <__ieee754_sqrt+0xa2>
    c22e:	f106 0801 	add.w	r8, r6, #1
    c232:	e7f1      	b.n	c218 <__ieee754_sqrt+0xa4>
    c234:	f025 4100 	bic.w	r1, r5, #2147483648	; 0x80000000
    c238:	4321      	orrs	r1, r4
    c23a:	d039      	beq.n	c2b0 <__ieee754_sqrt+0x13c>
    c23c:	2d00      	cmp	r5, #0
    c23e:	d150      	bne.n	c2e2 <__ieee754_sqrt+0x16e>
    c240:	0ad4      	lsrs	r4, r2, #11
    c242:	3b15      	subs	r3, #21
    c244:	0552      	lsls	r2, r2, #21
    c246:	4621      	mov	r1, r4
    c248:	2c00      	cmp	r4, #0
    c24a:	d0f9      	beq.n	c240 <__ieee754_sqrt+0xcc>
    c24c:	02e5      	lsls	r5, r4, #11
    c24e:	d456      	bmi.n	c2fe <__ieee754_sqrt+0x18a>
    c250:	2000      	movs	r0, #0
    c252:	e000      	b.n	c256 <__ieee754_sqrt+0xe2>
    c254:	4628      	mov	r0, r5
    c256:	0049      	lsls	r1, r1, #1
    c258:	02cc      	lsls	r4, r1, #11
    c25a:	f100 0501 	add.w	r5, r0, #1
    c25e:	d5f9      	bpl.n	c254 <__ieee754_sqrt+0xe0>
    c260:	460c      	mov	r4, r1
    c262:	4611      	mov	r1, r2
    c264:	40aa      	lsls	r2, r5
    c266:	f1c5 0520 	rsb	r5, r5, #32
    c26a:	fa21 f505 	lsr.w	r5, r1, r5
    c26e:	eba3 0e00 	sub.w	lr, r3, r0
    c272:	ea45 0304 	orr.w	r3, r5, r4
    c276:	e78e      	b.n	c196 <__ieee754_sqrt+0x22>
    c278:	42a1      	cmp	r1, r4
    c27a:	d8bb      	bhi.n	c1f4 <__ieee754_sqrt+0x80>
    c27c:	2900      	cmp	r1, #0
    c27e:	eb01 0502 	add.w	r5, r1, r2
    c282:	dbd2      	blt.n	c22a <__ieee754_sqrt+0xb6>
    c284:	4698      	mov	r8, r3
    c286:	2300      	movs	r3, #0
    c288:	e7cb      	b.n	c222 <__ieee754_sqrt+0xae>
    c28a:	4323      	orrs	r3, r4
    c28c:	d112      	bne.n	c2b4 <__ieee754_sqrt+0x140>
    c28e:	0878      	lsrs	r0, r7, #1
    c290:	ea4f 016c 	mov.w	r1, ip, asr #1
    c294:	f101 517f 	add.w	r1, r1, #1069547520	; 0x3fc00000
    c298:	f01c 0f01 	tst.w	ip, #1
    c29c:	f501 1100 	add.w	r1, r1, #2097152	; 0x200000
    c2a0:	bf18      	it	ne
    c2a2:	f040 4000 	orrne.w	r0, r0, #2147483648	; 0x80000000
    c2a6:	eb01 530e 	add.w	r3, r1, lr, lsl #20
    c2aa:	4602      	mov	r2, r0
    c2ac:	ec43 2b10 	vmov	d0, r2, r3
    c2b0:	e8bd 81f0 	ldmia.w	sp!, {r4, r5, r6, r7, r8, pc}
    c2b4:	1c7b      	adds	r3, r7, #1
    c2b6:	bf16      	itet	ne
    c2b8:	1c78      	addne	r0, r7, #1
    c2ba:	f10c 0c01 	addeq.w	ip, ip, #1
    c2be:	0840      	lsrne	r0, r0, #1
    c2c0:	e7e6      	b.n	c290 <__ieee754_sqrt+0x11c>
    c2c2:	ee10 2a10 	vmov	r2, s0
    c2c6:	462b      	mov	r3, r5
    c2c8:	ee10 0a10 	vmov	r0, s0
    c2cc:	4629      	mov	r1, r5
    c2ce:	f000 f9df 	bl	c690 <__aeabi_dmul>
    c2d2:	4622      	mov	r2, r4
    c2d4:	462b      	mov	r3, r5
    c2d6:	f000 f825 	bl	c324 <__adddf3>
    c2da:	ec41 0b10 	vmov	d0, r0, r1
    c2de:	e8bd 81f0 	ldmia.w	sp!, {r4, r5, r6, r7, r8, pc}
    c2e2:	4620      	mov	r0, r4
    c2e4:	4629      	mov	r1, r5
    c2e6:	f000 f81b 	bl	c320 <__aeabi_dsub>
    c2ea:	4602      	mov	r2, r0
    c2ec:	460b      	mov	r3, r1
    c2ee:	f000 faf9 	bl	c8e4 <__aeabi_ddiv>
    c2f2:	ec41 0b10 	vmov	d0, r0, r1
    c2f6:	e7db      	b.n	c2b0 <__ieee754_sqrt+0x13c>
    c2f8:	4629      	mov	r1, r5
    c2fa:	4673      	mov	r3, lr
    c2fc:	e7a8      	b.n	c250 <__ieee754_sqrt+0xdc>
    c2fe:	4611      	mov	r1, r2
    c300:	2520      	movs	r5, #32
    c302:	f04f 30ff 	mov.w	r0, #4294967295	; 0xffffffff
    c306:	e7b0      	b.n	c26a <__ieee754_sqrt+0xf6>
    c308:	7ff00000 	.word	0x7ff00000

0000c30c <__errno>:
    c30c:	4b01      	ldr	r3, [pc, #4]	; (c314 <__errno+0x8>)
    c30e:	6818      	ldr	r0, [r3, #0]
    c310:	4770      	bx	lr
    c312:	bf00      	nop
    c314:	10001008 	.word	0x10001008

0000c318 <__aeabi_drsub>:
    c318:	f081 4100 	eor.w	r1, r1, #2147483648	; 0x80000000
    c31c:	e002      	b.n	c324 <__adddf3>
    c31e:	bf00      	nop

0000c320 <__aeabi_dsub>:
    c320:	f083 4300 	eor.w	r3, r3, #2147483648	; 0x80000000

0000c324 <__adddf3>:
    c324:	b530      	push	{r4, r5, lr}
    c326:	ea4f 0441 	mov.w	r4, r1, lsl #1
    c32a:	ea4f 0543 	mov.w	r5, r3, lsl #1
    c32e:	ea94 0f05 	teq	r4, r5
    c332:	bf08      	it	eq
    c334:	ea90 0f02 	teqeq	r0, r2
    c338:	bf1f      	itttt	ne
    c33a:	ea54 0c00 	orrsne.w	ip, r4, r0
    c33e:	ea55 0c02 	orrsne.w	ip, r5, r2
    c342:	ea7f 5c64 	mvnsne.w	ip, r4, asr #21
    c346:	ea7f 5c65 	mvnsne.w	ip, r5, asr #21
    c34a:	f000 80e2 	beq.w	c512 <__adddf3+0x1ee>
    c34e:	ea4f 5454 	mov.w	r4, r4, lsr #21
    c352:	ebd4 5555 	rsbs	r5, r4, r5, lsr #21
    c356:	bfb8      	it	lt
    c358:	426d      	neglt	r5, r5
    c35a:	dd0c      	ble.n	c376 <__adddf3+0x52>
    c35c:	442c      	add	r4, r5
    c35e:	ea80 0202 	eor.w	r2, r0, r2
    c362:	ea81 0303 	eor.w	r3, r1, r3
    c366:	ea82 0000 	eor.w	r0, r2, r0
    c36a:	ea83 0101 	eor.w	r1, r3, r1
    c36e:	ea80 0202 	eor.w	r2, r0, r2
    c372:	ea81 0303 	eor.w	r3, r1, r3
    c376:	2d36      	cmp	r5, #54	; 0x36
    c378:	bf88      	it	hi
    c37a:	bd30      	pophi	{r4, r5, pc}
    c37c:	f011 4f00 	tst.w	r1, #2147483648	; 0x80000000
    c380:	ea4f 3101 	mov.w	r1, r1, lsl #12
    c384:	f44f 1c80 	mov.w	ip, #1048576	; 0x100000
    c388:	ea4c 3111 	orr.w	r1, ip, r1, lsr #12
    c38c:	d002      	beq.n	c394 <__adddf3+0x70>
    c38e:	4240      	negs	r0, r0
    c390:	eb61 0141 	sbc.w	r1, r1, r1, lsl #1
    c394:	f013 4f00 	tst.w	r3, #2147483648	; 0x80000000
    c398:	ea4f 3303 	mov.w	r3, r3, lsl #12
    c39c:	ea4c 3313 	orr.w	r3, ip, r3, lsr #12
    c3a0:	d002      	beq.n	c3a8 <__adddf3+0x84>
    c3a2:	4252      	negs	r2, r2
    c3a4:	eb63 0343 	sbc.w	r3, r3, r3, lsl #1
    c3a8:	ea94 0f05 	teq	r4, r5
    c3ac:	f000 80a7 	beq.w	c4fe <__adddf3+0x1da>
    c3b0:	f1a4 0401 	sub.w	r4, r4, #1
    c3b4:	f1d5 0e20 	rsbs	lr, r5, #32
    c3b8:	db0d      	blt.n	c3d6 <__adddf3+0xb2>
    c3ba:	fa02 fc0e 	lsl.w	ip, r2, lr
    c3be:	fa22 f205 	lsr.w	r2, r2, r5
    c3c2:	1880      	adds	r0, r0, r2
    c3c4:	f141 0100 	adc.w	r1, r1, #0
    c3c8:	fa03 f20e 	lsl.w	r2, r3, lr
    c3cc:	1880      	adds	r0, r0, r2
    c3ce:	fa43 f305 	asr.w	r3, r3, r5
    c3d2:	4159      	adcs	r1, r3
    c3d4:	e00e      	b.n	c3f4 <__adddf3+0xd0>
    c3d6:	f1a5 0520 	sub.w	r5, r5, #32
    c3da:	f10e 0e20 	add.w	lr, lr, #32
    c3de:	2a01      	cmp	r2, #1
    c3e0:	fa03 fc0e 	lsl.w	ip, r3, lr
    c3e4:	bf28      	it	cs
    c3e6:	f04c 0c02 	orrcs.w	ip, ip, #2
    c3ea:	fa43 f305 	asr.w	r3, r3, r5
    c3ee:	18c0      	adds	r0, r0, r3
    c3f0:	eb51 71e3 	adcs.w	r1, r1, r3, asr #31
    c3f4:	f001 4500 	and.w	r5, r1, #2147483648	; 0x80000000
    c3f8:	d507      	bpl.n	c40a <__adddf3+0xe6>
    c3fa:	f04f 0e00 	mov.w	lr, #0
    c3fe:	f1dc 0c00 	rsbs	ip, ip, #0
    c402:	eb7e 0000 	sbcs.w	r0, lr, r0
    c406:	eb6e 0101 	sbc.w	r1, lr, r1
    c40a:	f5b1 1f80 	cmp.w	r1, #1048576	; 0x100000
    c40e:	d31b      	bcc.n	c448 <__adddf3+0x124>
    c410:	f5b1 1f00 	cmp.w	r1, #2097152	; 0x200000
    c414:	d30c      	bcc.n	c430 <__adddf3+0x10c>
    c416:	0849      	lsrs	r1, r1, #1
    c418:	ea5f 0030 	movs.w	r0, r0, rrx
    c41c:	ea4f 0c3c 	mov.w	ip, ip, rrx
    c420:	f104 0401 	add.w	r4, r4, #1
    c424:	ea4f 5244 	mov.w	r2, r4, lsl #21
    c428:	f512 0f80 	cmn.w	r2, #4194304	; 0x400000
    c42c:	f080 809a 	bcs.w	c564 <__adddf3+0x240>
    c430:	f1bc 4f00 	cmp.w	ip, #2147483648	; 0x80000000
    c434:	bf08      	it	eq
    c436:	ea5f 0c50 	movseq.w	ip, r0, lsr #1
    c43a:	f150 0000 	adcs.w	r0, r0, #0
    c43e:	eb41 5104 	adc.w	r1, r1, r4, lsl #20
    c442:	ea41 0105 	orr.w	r1, r1, r5
    c446:	bd30      	pop	{r4, r5, pc}
    c448:	ea5f 0c4c 	movs.w	ip, ip, lsl #1
    c44c:	4140      	adcs	r0, r0
    c44e:	eb41 0101 	adc.w	r1, r1, r1
    c452:	3c01      	subs	r4, #1
    c454:	bf28      	it	cs
    c456:	f5b1 1f80 	cmpcs.w	r1, #1048576	; 0x100000
    c45a:	d2e9      	bcs.n	c430 <__adddf3+0x10c>
    c45c:	f091 0f00 	teq	r1, #0
    c460:	bf04      	itt	eq
    c462:	4601      	moveq	r1, r0
    c464:	2000      	moveq	r0, #0
    c466:	fab1 f381 	clz	r3, r1
    c46a:	bf08      	it	eq
    c46c:	3320      	addeq	r3, #32
    c46e:	f1a3 030b 	sub.w	r3, r3, #11
    c472:	f1b3 0220 	subs.w	r2, r3, #32
    c476:	da0c      	bge.n	c492 <__adddf3+0x16e>
    c478:	320c      	adds	r2, #12
    c47a:	dd08      	ble.n	c48e <__adddf3+0x16a>
    c47c:	f102 0c14 	add.w	ip, r2, #20
    c480:	f1c2 020c 	rsb	r2, r2, #12
    c484:	fa01 f00c 	lsl.w	r0, r1, ip
    c488:	fa21 f102 	lsr.w	r1, r1, r2
    c48c:	e00c      	b.n	c4a8 <__adddf3+0x184>
    c48e:	f102 0214 	add.w	r2, r2, #20
    c492:	bfd8      	it	le
    c494:	f1c2 0c20 	rsble	ip, r2, #32
    c498:	fa01 f102 	lsl.w	r1, r1, r2
    c49c:	fa20 fc0c 	lsr.w	ip, r0, ip
    c4a0:	bfdc      	itt	le
    c4a2:	ea41 010c 	orrle.w	r1, r1, ip
    c4a6:	4090      	lslle	r0, r2
    c4a8:	1ae4      	subs	r4, r4, r3
    c4aa:	bfa2      	ittt	ge
    c4ac:	eb01 5104 	addge.w	r1, r1, r4, lsl #20
    c4b0:	4329      	orrge	r1, r5
    c4b2:	bd30      	popge	{r4, r5, pc}
    c4b4:	ea6f 0404 	mvn.w	r4, r4
    c4b8:	3c1f      	subs	r4, #31
    c4ba:	da1c      	bge.n	c4f6 <__adddf3+0x1d2>
    c4bc:	340c      	adds	r4, #12
    c4be:	dc0e      	bgt.n	c4de <__adddf3+0x1ba>
    c4c0:	f104 0414 	add.w	r4, r4, #20
    c4c4:	f1c4 0220 	rsb	r2, r4, #32
    c4c8:	fa20 f004 	lsr.w	r0, r0, r4
    c4cc:	fa01 f302 	lsl.w	r3, r1, r2
    c4d0:	ea40 0003 	orr.w	r0, r0, r3
    c4d4:	fa21 f304 	lsr.w	r3, r1, r4
    c4d8:	ea45 0103 	orr.w	r1, r5, r3
    c4dc:	bd30      	pop	{r4, r5, pc}
    c4de:	f1c4 040c 	rsb	r4, r4, #12
    c4e2:	f1c4 0220 	rsb	r2, r4, #32
    c4e6:	fa20 f002 	lsr.w	r0, r0, r2
    c4ea:	fa01 f304 	lsl.w	r3, r1, r4
    c4ee:	ea40 0003 	orr.w	r0, r0, r3
    c4f2:	4629      	mov	r1, r5
    c4f4:	bd30      	pop	{r4, r5, pc}
    c4f6:	fa21 f004 	lsr.w	r0, r1, r4
    c4fa:	4629      	mov	r1, r5
    c4fc:	bd30      	pop	{r4, r5, pc}
    c4fe:	f094 0f00 	teq	r4, #0
    c502:	f483 1380 	eor.w	r3, r3, #1048576	; 0x100000
    c506:	bf06      	itte	eq
    c508:	f481 1180 	eoreq.w	r1, r1, #1048576	; 0x100000
    c50c:	3401      	addeq	r4, #1
    c50e:	3d01      	subne	r5, #1
    c510:	e74e      	b.n	c3b0 <__adddf3+0x8c>
    c512:	ea7f 5c64 	mvns.w	ip, r4, asr #21
    c516:	bf18      	it	ne
    c518:	ea7f 5c65 	mvnsne.w	ip, r5, asr #21
    c51c:	d029      	beq.n	c572 <__adddf3+0x24e>
    c51e:	ea94 0f05 	teq	r4, r5
    c522:	bf08      	it	eq
    c524:	ea90 0f02 	teqeq	r0, r2
    c528:	d005      	beq.n	c536 <__adddf3+0x212>
    c52a:	ea54 0c00 	orrs.w	ip, r4, r0
    c52e:	bf04      	itt	eq
    c530:	4619      	moveq	r1, r3
    c532:	4610      	moveq	r0, r2
    c534:	bd30      	pop	{r4, r5, pc}
    c536:	ea91 0f03 	teq	r1, r3
    c53a:	bf1e      	ittt	ne
    c53c:	2100      	movne	r1, #0
    c53e:	2000      	movne	r0, #0
    c540:	bd30      	popne	{r4, r5, pc}
    c542:	ea5f 5c54 	movs.w	ip, r4, lsr #21
    c546:	d105      	bne.n	c554 <__adddf3+0x230>
    c548:	0040      	lsls	r0, r0, #1
    c54a:	4149      	adcs	r1, r1
    c54c:	bf28      	it	cs
    c54e:	f041 4100 	orrcs.w	r1, r1, #2147483648	; 0x80000000
    c552:	bd30      	pop	{r4, r5, pc}
    c554:	f514 0480 	adds.w	r4, r4, #4194304	; 0x400000
    c558:	bf3c      	itt	cc
    c55a:	f501 1180 	addcc.w	r1, r1, #1048576	; 0x100000
    c55e:	bd30      	popcc	{r4, r5, pc}
    c560:	f001 4500 	and.w	r5, r1, #2147483648	; 0x80000000
    c564:	f045 41fe 	orr.w	r1, r5, #2130706432	; 0x7f000000
    c568:	f441 0170 	orr.w	r1, r1, #15728640	; 0xf00000
    c56c:	f04f 0000 	mov.w	r0, #0
    c570:	bd30      	pop	{r4, r5, pc}
    c572:	ea7f 5c64 	mvns.w	ip, r4, asr #21
    c576:	bf1a      	itte	ne
    c578:	4619      	movne	r1, r3
    c57a:	4610      	movne	r0, r2
    c57c:	ea7f 5c65 	mvnseq.w	ip, r5, asr #21
    c580:	bf1c      	itt	ne
    c582:	460b      	movne	r3, r1
    c584:	4602      	movne	r2, r0
    c586:	ea50 3401 	orrs.w	r4, r0, r1, lsl #12
    c58a:	bf06      	itte	eq
    c58c:	ea52 3503 	orrseq.w	r5, r2, r3, lsl #12
    c590:	ea91 0f03 	teqeq	r1, r3
    c594:	f441 2100 	orrne.w	r1, r1, #524288	; 0x80000
    c598:	bd30      	pop	{r4, r5, pc}
    c59a:	bf00      	nop

0000c59c <__aeabi_ui2d>:
    c59c:	f090 0f00 	teq	r0, #0
    c5a0:	bf04      	itt	eq
    c5a2:	2100      	moveq	r1, #0
    c5a4:	4770      	bxeq	lr
    c5a6:	b530      	push	{r4, r5, lr}
    c5a8:	f44f 6480 	mov.w	r4, #1024	; 0x400
    c5ac:	f104 0432 	add.w	r4, r4, #50	; 0x32
    c5b0:	f04f 0500 	mov.w	r5, #0
    c5b4:	f04f 0100 	mov.w	r1, #0
    c5b8:	e750      	b.n	c45c <__adddf3+0x138>
    c5ba:	bf00      	nop

0000c5bc <__aeabi_i2d>:
    c5bc:	f090 0f00 	teq	r0, #0
    c5c0:	bf04      	itt	eq
    c5c2:	2100      	moveq	r1, #0
    c5c4:	4770      	bxeq	lr
    c5c6:	b530      	push	{r4, r5, lr}
    c5c8:	f44f 6480 	mov.w	r4, #1024	; 0x400
    c5cc:	f104 0432 	add.w	r4, r4, #50	; 0x32
    c5d0:	f010 4500 	ands.w	r5, r0, #2147483648	; 0x80000000
    c5d4:	bf48      	it	mi
    c5d6:	4240      	negmi	r0, r0
    c5d8:	f04f 0100 	mov.w	r1, #0
    c5dc:	e73e      	b.n	c45c <__adddf3+0x138>
    c5de:	bf00      	nop

0000c5e0 <__aeabi_f2d>:
    c5e0:	0042      	lsls	r2, r0, #1
    c5e2:	ea4f 01e2 	mov.w	r1, r2, asr #3
    c5e6:	ea4f 0131 	mov.w	r1, r1, rrx
    c5ea:	ea4f 7002 	mov.w	r0, r2, lsl #28
    c5ee:	bf1f      	itttt	ne
    c5f0:	f012 437f 	andsne.w	r3, r2, #4278190080	; 0xff000000
    c5f4:	f093 4f7f 	teqne	r3, #4278190080	; 0xff000000
    c5f8:	f081 5160 	eorne.w	r1, r1, #939524096	; 0x38000000
    c5fc:	4770      	bxne	lr
    c5fe:	f032 427f 	bics.w	r2, r2, #4278190080	; 0xff000000
    c602:	bf08      	it	eq
    c604:	4770      	bxeq	lr
    c606:	f093 4f7f 	teq	r3, #4278190080	; 0xff000000
    c60a:	bf04      	itt	eq
    c60c:	f441 2100 	orreq.w	r1, r1, #524288	; 0x80000
    c610:	4770      	bxeq	lr
    c612:	b530      	push	{r4, r5, lr}
    c614:	f44f 7460 	mov.w	r4, #896	; 0x380
    c618:	f001 4500 	and.w	r5, r1, #2147483648	; 0x80000000
    c61c:	f021 4100 	bic.w	r1, r1, #2147483648	; 0x80000000
    c620:	e71c      	b.n	c45c <__adddf3+0x138>
    c622:	bf00      	nop

0000c624 <__aeabi_ul2d>:
    c624:	ea50 0201 	orrs.w	r2, r0, r1
    c628:	bf08      	it	eq
    c62a:	4770      	bxeq	lr
    c62c:	b530      	push	{r4, r5, lr}
    c62e:	f04f 0500 	mov.w	r5, #0
    c632:	e00a      	b.n	c64a <__aeabi_l2d+0x16>

0000c634 <__aeabi_l2d>:
    c634:	ea50 0201 	orrs.w	r2, r0, r1
    c638:	bf08      	it	eq
    c63a:	4770      	bxeq	lr
    c63c:	b530      	push	{r4, r5, lr}
    c63e:	f011 4500 	ands.w	r5, r1, #2147483648	; 0x80000000
    c642:	d502      	bpl.n	c64a <__aeabi_l2d+0x16>
    c644:	4240      	negs	r0, r0
    c646:	eb61 0141 	sbc.w	r1, r1, r1, lsl #1
    c64a:	f44f 6480 	mov.w	r4, #1024	; 0x400
    c64e:	f104 0432 	add.w	r4, r4, #50	; 0x32
    c652:	ea5f 5c91 	movs.w	ip, r1, lsr #22
    c656:	f43f aed8 	beq.w	c40a <__adddf3+0xe6>
    c65a:	f04f 0203 	mov.w	r2, #3
    c65e:	ea5f 0cdc 	movs.w	ip, ip, lsr #3
    c662:	bf18      	it	ne
    c664:	3203      	addne	r2, #3
    c666:	ea5f 0cdc 	movs.w	ip, ip, lsr #3
    c66a:	bf18      	it	ne
    c66c:	3203      	addne	r2, #3
    c66e:	eb02 02dc 	add.w	r2, r2, ip, lsr #3
    c672:	f1c2 0320 	rsb	r3, r2, #32
    c676:	fa00 fc03 	lsl.w	ip, r0, r3
    c67a:	fa20 f002 	lsr.w	r0, r0, r2
    c67e:	fa01 fe03 	lsl.w	lr, r1, r3
    c682:	ea40 000e 	orr.w	r0, r0, lr
    c686:	fa21 f102 	lsr.w	r1, r1, r2
    c68a:	4414      	add	r4, r2
    c68c:	e6bd      	b.n	c40a <__adddf3+0xe6>
    c68e:	bf00      	nop

0000c690 <__aeabi_dmul>:
    c690:	b570      	push	{r4, r5, r6, lr}
    c692:	f04f 0cff 	mov.w	ip, #255	; 0xff
    c696:	f44c 6ce0 	orr.w	ip, ip, #1792	; 0x700
    c69a:	ea1c 5411 	ands.w	r4, ip, r1, lsr #20
    c69e:	bf1d      	ittte	ne
    c6a0:	ea1c 5513 	andsne.w	r5, ip, r3, lsr #20
    c6a4:	ea94 0f0c 	teqne	r4, ip
    c6a8:	ea95 0f0c 	teqne	r5, ip
    c6ac:	f000 f8de 	bleq	c86c <__aeabi_dmul+0x1dc>
    c6b0:	442c      	add	r4, r5
    c6b2:	ea81 0603 	eor.w	r6, r1, r3
    c6b6:	ea21 514c 	bic.w	r1, r1, ip, lsl #21
    c6ba:	ea23 534c 	bic.w	r3, r3, ip, lsl #21
    c6be:	ea50 3501 	orrs.w	r5, r0, r1, lsl #12
    c6c2:	bf18      	it	ne
    c6c4:	ea52 3503 	orrsne.w	r5, r2, r3, lsl #12
    c6c8:	f441 1180 	orr.w	r1, r1, #1048576	; 0x100000
    c6cc:	f443 1380 	orr.w	r3, r3, #1048576	; 0x100000
    c6d0:	d038      	beq.n	c744 <__aeabi_dmul+0xb4>
    c6d2:	fba0 ce02 	umull	ip, lr, r0, r2
    c6d6:	f04f 0500 	mov.w	r5, #0
    c6da:	fbe1 e502 	umlal	lr, r5, r1, r2
    c6de:	f006 4200 	and.w	r2, r6, #2147483648	; 0x80000000
    c6e2:	fbe0 e503 	umlal	lr, r5, r0, r3
    c6e6:	f04f 0600 	mov.w	r6, #0
    c6ea:	fbe1 5603 	umlal	r5, r6, r1, r3
    c6ee:	f09c 0f00 	teq	ip, #0
    c6f2:	bf18      	it	ne
    c6f4:	f04e 0e01 	orrne.w	lr, lr, #1
    c6f8:	f1a4 04ff 	sub.w	r4, r4, #255	; 0xff
    c6fc:	f5b6 7f00 	cmp.w	r6, #512	; 0x200
    c700:	f564 7440 	sbc.w	r4, r4, #768	; 0x300
    c704:	d204      	bcs.n	c710 <__aeabi_dmul+0x80>
    c706:	ea5f 0e4e 	movs.w	lr, lr, lsl #1
    c70a:	416d      	adcs	r5, r5
    c70c:	eb46 0606 	adc.w	r6, r6, r6
    c710:	ea42 21c6 	orr.w	r1, r2, r6, lsl #11
    c714:	ea41 5155 	orr.w	r1, r1, r5, lsr #21
    c718:	ea4f 20c5 	mov.w	r0, r5, lsl #11
    c71c:	ea40 505e 	orr.w	r0, r0, lr, lsr #21
    c720:	ea4f 2ece 	mov.w	lr, lr, lsl #11
    c724:	f1b4 0cfd 	subs.w	ip, r4, #253	; 0xfd
    c728:	bf88      	it	hi
    c72a:	f5bc 6fe0 	cmphi.w	ip, #1792	; 0x700
    c72e:	d81e      	bhi.n	c76e <__aeabi_dmul+0xde>
    c730:	f1be 4f00 	cmp.w	lr, #2147483648	; 0x80000000
    c734:	bf08      	it	eq
    c736:	ea5f 0e50 	movseq.w	lr, r0, lsr #1
    c73a:	f150 0000 	adcs.w	r0, r0, #0
    c73e:	eb41 5104 	adc.w	r1, r1, r4, lsl #20
    c742:	bd70      	pop	{r4, r5, r6, pc}
    c744:	f006 4600 	and.w	r6, r6, #2147483648	; 0x80000000
    c748:	ea46 0101 	orr.w	r1, r6, r1
    c74c:	ea40 0002 	orr.w	r0, r0, r2
    c750:	ea81 0103 	eor.w	r1, r1, r3
    c754:	ebb4 045c 	subs.w	r4, r4, ip, lsr #1
    c758:	bfc2      	ittt	gt
    c75a:	ebd4 050c 	rsbsgt	r5, r4, ip
    c75e:	ea41 5104 	orrgt.w	r1, r1, r4, lsl #20
    c762:	bd70      	popgt	{r4, r5, r6, pc}
    c764:	f441 1180 	orr.w	r1, r1, #1048576	; 0x100000
    c768:	f04f 0e00 	mov.w	lr, #0
    c76c:	3c01      	subs	r4, #1
    c76e:	f300 80ab 	bgt.w	c8c8 <__aeabi_dmul+0x238>
    c772:	f114 0f36 	cmn.w	r4, #54	; 0x36
    c776:	bfde      	ittt	le
    c778:	2000      	movle	r0, #0
    c77a:	f001 4100 	andle.w	r1, r1, #2147483648	; 0x80000000
    c77e:	bd70      	pople	{r4, r5, r6, pc}
    c780:	f1c4 0400 	rsb	r4, r4, #0
    c784:	3c20      	subs	r4, #32
    c786:	da35      	bge.n	c7f4 <__aeabi_dmul+0x164>
    c788:	340c      	adds	r4, #12
    c78a:	dc1b      	bgt.n	c7c4 <__aeabi_dmul+0x134>
    c78c:	f104 0414 	add.w	r4, r4, #20
    c790:	f1c4 0520 	rsb	r5, r4, #32
    c794:	fa00 f305 	lsl.w	r3, r0, r5
    c798:	fa20 f004 	lsr.w	r0, r0, r4
    c79c:	fa01 f205 	lsl.w	r2, r1, r5
    c7a0:	ea40 0002 	orr.w	r0, r0, r2
    c7a4:	f001 4200 	and.w	r2, r1, #2147483648	; 0x80000000
    c7a8:	f021 4100 	bic.w	r1, r1, #2147483648	; 0x80000000
    c7ac:	eb10 70d3 	adds.w	r0, r0, r3, lsr #31
    c7b0:	fa21 f604 	lsr.w	r6, r1, r4
    c7b4:	eb42 0106 	adc.w	r1, r2, r6
    c7b8:	ea5e 0e43 	orrs.w	lr, lr, r3, lsl #1
    c7bc:	bf08      	it	eq
    c7be:	ea20 70d3 	biceq.w	r0, r0, r3, lsr #31
    c7c2:	bd70      	pop	{r4, r5, r6, pc}
    c7c4:	f1c4 040c 	rsb	r4, r4, #12
    c7c8:	f1c4 0520 	rsb	r5, r4, #32
    c7cc:	fa00 f304 	lsl.w	r3, r0, r4
    c7d0:	fa20 f005 	lsr.w	r0, r0, r5
    c7d4:	fa01 f204 	lsl.w	r2, r1, r4
    c7d8:	ea40 0002 	orr.w	r0, r0, r2
    c7dc:	f001 4100 	and.w	r1, r1, #2147483648	; 0x80000000
    c7e0:	eb10 70d3 	adds.w	r0, r0, r3, lsr #31
    c7e4:	f141 0100 	adc.w	r1, r1, #0
    c7e8:	ea5e 0e43 	orrs.w	lr, lr, r3, lsl #1
    c7ec:	bf08      	it	eq
    c7ee:	ea20 70d3 	biceq.w	r0, r0, r3, lsr #31
    c7f2:	bd70      	pop	{r4, r5, r6, pc}
    c7f4:	f1c4 0520 	rsb	r5, r4, #32
    c7f8:	fa00 f205 	lsl.w	r2, r0, r5
    c7fc:	ea4e 0e02 	orr.w	lr, lr, r2
    c800:	fa20 f304 	lsr.w	r3, r0, r4
    c804:	fa01 f205 	lsl.w	r2, r1, r5
    c808:	ea43 0302 	orr.w	r3, r3, r2
    c80c:	fa21 f004 	lsr.w	r0, r1, r4
    c810:	f001 4100 	and.w	r1, r1, #2147483648	; 0x80000000
    c814:	fa21 f204 	lsr.w	r2, r1, r4
    c818:	ea20 0002 	bic.w	r0, r0, r2
    c81c:	eb00 70d3 	add.w	r0, r0, r3, lsr #31
    c820:	ea5e 0e43 	orrs.w	lr, lr, r3, lsl #1
    c824:	bf08      	it	eq
    c826:	ea20 70d3 	biceq.w	r0, r0, r3, lsr #31
    c82a:	bd70      	pop	{r4, r5, r6, pc}
    c82c:	f094 0f00 	teq	r4, #0
    c830:	d10f      	bne.n	c852 <__aeabi_dmul+0x1c2>
    c832:	f001 4600 	and.w	r6, r1, #2147483648	; 0x80000000
    c836:	0040      	lsls	r0, r0, #1
    c838:	eb41 0101 	adc.w	r1, r1, r1
    c83c:	f411 1f80 	tst.w	r1, #1048576	; 0x100000
    c840:	bf08      	it	eq
    c842:	3c01      	subeq	r4, #1
    c844:	d0f7      	beq.n	c836 <__aeabi_dmul+0x1a6>
    c846:	ea41 0106 	orr.w	r1, r1, r6
    c84a:	f095 0f00 	teq	r5, #0
    c84e:	bf18      	it	ne
    c850:	4770      	bxne	lr
    c852:	f003 4600 	and.w	r6, r3, #2147483648	; 0x80000000
    c856:	0052      	lsls	r2, r2, #1
    c858:	eb43 0303 	adc.w	r3, r3, r3
    c85c:	f413 1f80 	tst.w	r3, #1048576	; 0x100000
    c860:	bf08      	it	eq
    c862:	3d01      	subeq	r5, #1
    c864:	d0f7      	beq.n	c856 <__aeabi_dmul+0x1c6>
    c866:	ea43 0306 	orr.w	r3, r3, r6
    c86a:	4770      	bx	lr
    c86c:	ea94 0f0c 	teq	r4, ip
    c870:	ea0c 5513 	and.w	r5, ip, r3, lsr #20
    c874:	bf18      	it	ne
    c876:	ea95 0f0c 	teqne	r5, ip
    c87a:	d00c      	beq.n	c896 <__aeabi_dmul+0x206>
    c87c:	ea50 0641 	orrs.w	r6, r0, r1, lsl #1
    c880:	bf18      	it	ne
    c882:	ea52 0643 	orrsne.w	r6, r2, r3, lsl #1
    c886:	d1d1      	bne.n	c82c <__aeabi_dmul+0x19c>
    c888:	ea81 0103 	eor.w	r1, r1, r3
    c88c:	f001 4100 	and.w	r1, r1, #2147483648	; 0x80000000
    c890:	f04f 0000 	mov.w	r0, #0
    c894:	bd70      	pop	{r4, r5, r6, pc}
    c896:	ea50 0641 	orrs.w	r6, r0, r1, lsl #1
    c89a:	bf06      	itte	eq
    c89c:	4610      	moveq	r0, r2
    c89e:	4619      	moveq	r1, r3
    c8a0:	ea52 0643 	orrsne.w	r6, r2, r3, lsl #1
    c8a4:	d019      	beq.n	c8da <__aeabi_dmul+0x24a>
    c8a6:	ea94 0f0c 	teq	r4, ip
    c8aa:	d102      	bne.n	c8b2 <__aeabi_dmul+0x222>
    c8ac:	ea50 3601 	orrs.w	r6, r0, r1, lsl #12
    c8b0:	d113      	bne.n	c8da <__aeabi_dmul+0x24a>
    c8b2:	ea95 0f0c 	teq	r5, ip
    c8b6:	d105      	bne.n	c8c4 <__aeabi_dmul+0x234>
    c8b8:	ea52 3603 	orrs.w	r6, r2, r3, lsl #12
    c8bc:	bf1c      	itt	ne
    c8be:	4610      	movne	r0, r2
    c8c0:	4619      	movne	r1, r3
    c8c2:	d10a      	bne.n	c8da <__aeabi_dmul+0x24a>
    c8c4:	ea81 0103 	eor.w	r1, r1, r3
    c8c8:	f001 4100 	and.w	r1, r1, #2147483648	; 0x80000000
    c8cc:	f041 41fe 	orr.w	r1, r1, #2130706432	; 0x7f000000
    c8d0:	f441 0170 	orr.w	r1, r1, #15728640	; 0xf00000
    c8d4:	f04f 0000 	mov.w	r0, #0
    c8d8:	bd70      	pop	{r4, r5, r6, pc}
    c8da:	f041 41fe 	orr.w	r1, r1, #2130706432	; 0x7f000000
    c8de:	f441 0178 	orr.w	r1, r1, #16252928	; 0xf80000
    c8e2:	bd70      	pop	{r4, r5, r6, pc}

0000c8e4 <__aeabi_ddiv>:
    c8e4:	b570      	push	{r4, r5, r6, lr}
    c8e6:	f04f 0cff 	mov.w	ip, #255	; 0xff
    c8ea:	f44c 6ce0 	orr.w	ip, ip, #1792	; 0x700
    c8ee:	ea1c 5411 	ands.w	r4, ip, r1, lsr #20
    c8f2:	bf1d      	ittte	ne
    c8f4:	ea1c 5513 	andsne.w	r5, ip, r3, lsr #20
    c8f8:	ea94 0f0c 	teqne	r4, ip
    c8fc:	ea95 0f0c 	teqne	r5, ip
    c900:	f000 f8a7 	bleq	ca52 <__aeabi_ddiv+0x16e>
    c904:	eba4 0405 	sub.w	r4, r4, r5
    c908:	ea81 0e03 	eor.w	lr, r1, r3
    c90c:	ea52 3503 	orrs.w	r5, r2, r3, lsl #12
    c910:	ea4f 3101 	mov.w	r1, r1, lsl #12
    c914:	f000 8088 	beq.w	ca28 <__aeabi_ddiv+0x144>
    c918:	ea4f 3303 	mov.w	r3, r3, lsl #12
    c91c:	f04f 5580 	mov.w	r5, #268435456	; 0x10000000
    c920:	ea45 1313 	orr.w	r3, r5, r3, lsr #4
    c924:	ea43 6312 	orr.w	r3, r3, r2, lsr #24
    c928:	ea4f 2202 	mov.w	r2, r2, lsl #8
    c92c:	ea45 1511 	orr.w	r5, r5, r1, lsr #4
    c930:	ea45 6510 	orr.w	r5, r5, r0, lsr #24
    c934:	ea4f 2600 	mov.w	r6, r0, lsl #8
    c938:	f00e 4100 	and.w	r1, lr, #2147483648	; 0x80000000
    c93c:	429d      	cmp	r5, r3
    c93e:	bf08      	it	eq
    c940:	4296      	cmpeq	r6, r2
    c942:	f144 04fd 	adc.w	r4, r4, #253	; 0xfd
    c946:	f504 7440 	add.w	r4, r4, #768	; 0x300
    c94a:	d202      	bcs.n	c952 <__aeabi_ddiv+0x6e>
    c94c:	085b      	lsrs	r3, r3, #1
    c94e:	ea4f 0232 	mov.w	r2, r2, rrx
    c952:	1ab6      	subs	r6, r6, r2
    c954:	eb65 0503 	sbc.w	r5, r5, r3
    c958:	085b      	lsrs	r3, r3, #1
    c95a:	ea4f 0232 	mov.w	r2, r2, rrx
    c95e:	f44f 1080 	mov.w	r0, #1048576	; 0x100000
    c962:	f44f 2c00 	mov.w	ip, #524288	; 0x80000
    c966:	ebb6 0e02 	subs.w	lr, r6, r2
    c96a:	eb75 0e03 	sbcs.w	lr, r5, r3
    c96e:	bf22      	ittt	cs
    c970:	1ab6      	subcs	r6, r6, r2
    c972:	4675      	movcs	r5, lr
    c974:	ea40 000c 	orrcs.w	r0, r0, ip
    c978:	085b      	lsrs	r3, r3, #1
    c97a:	ea4f 0232 	mov.w	r2, r2, rrx
    c97e:	ebb6 0e02 	subs.w	lr, r6, r2
    c982:	eb75 0e03 	sbcs.w	lr, r5, r3
    c986:	bf22      	ittt	cs
    c988:	1ab6      	subcs	r6, r6, r2
    c98a:	4675      	movcs	r5, lr
    c98c:	ea40 005c 	orrcs.w	r0, r0, ip, lsr #1
    c990:	085b      	lsrs	r3, r3, #1
    c992:	ea4f 0232 	mov.w	r2, r2, rrx
    c996:	ebb6 0e02 	subs.w	lr, r6, r2
    c99a:	eb75 0e03 	sbcs.w	lr, r5, r3
    c99e:	bf22      	ittt	cs
    c9a0:	1ab6      	subcs	r6, r6, r2
    c9a2:	4675      	movcs	r5, lr
    c9a4:	ea40 009c 	orrcs.w	r0, r0, ip, lsr #2
    c9a8:	085b      	lsrs	r3, r3, #1
    c9aa:	ea4f 0232 	mov.w	r2, r2, rrx
    c9ae:	ebb6 0e02 	subs.w	lr, r6, r2
    c9b2:	eb75 0e03 	sbcs.w	lr, r5, r3
    c9b6:	bf22      	ittt	cs
    c9b8:	1ab6      	subcs	r6, r6, r2
    c9ba:	4675      	movcs	r5, lr
    c9bc:	ea40 00dc 	orrcs.w	r0, r0, ip, lsr #3
    c9c0:	ea55 0e06 	orrs.w	lr, r5, r6
    c9c4:	d018      	beq.n	c9f8 <__aeabi_ddiv+0x114>
    c9c6:	ea4f 1505 	mov.w	r5, r5, lsl #4
    c9ca:	ea45 7516 	orr.w	r5, r5, r6, lsr #28
    c9ce:	ea4f 1606 	mov.w	r6, r6, lsl #4
    c9d2:	ea4f 03c3 	mov.w	r3, r3, lsl #3
    c9d6:	ea43 7352 	orr.w	r3, r3, r2, lsr #29
    c9da:	ea4f 02c2 	mov.w	r2, r2, lsl #3
    c9de:	ea5f 1c1c 	movs.w	ip, ip, lsr #4
    c9e2:	d1c0      	bne.n	c966 <__aeabi_ddiv+0x82>
    c9e4:	f411 1f80 	tst.w	r1, #1048576	; 0x100000
    c9e8:	d10b      	bne.n	ca02 <__aeabi_ddiv+0x11e>
    c9ea:	ea41 0100 	orr.w	r1, r1, r0
    c9ee:	f04f 0000 	mov.w	r0, #0
    c9f2:	f04f 4c00 	mov.w	ip, #2147483648	; 0x80000000
    c9f6:	e7b6      	b.n	c966 <__aeabi_ddiv+0x82>
    c9f8:	f411 1f80 	tst.w	r1, #1048576	; 0x100000
    c9fc:	bf04      	itt	eq
    c9fe:	4301      	orreq	r1, r0
    ca00:	2000      	moveq	r0, #0
    ca02:	f1b4 0cfd 	subs.w	ip, r4, #253	; 0xfd
    ca06:	bf88      	it	hi
    ca08:	f5bc 6fe0 	cmphi.w	ip, #1792	; 0x700
    ca0c:	f63f aeaf 	bhi.w	c76e <__aeabi_dmul+0xde>
    ca10:	ebb5 0c03 	subs.w	ip, r5, r3
    ca14:	bf04      	itt	eq
    ca16:	ebb6 0c02 	subseq.w	ip, r6, r2
    ca1a:	ea5f 0c50 	movseq.w	ip, r0, lsr #1
    ca1e:	f150 0000 	adcs.w	r0, r0, #0
    ca22:	eb41 5104 	adc.w	r1, r1, r4, lsl #20
    ca26:	bd70      	pop	{r4, r5, r6, pc}
    ca28:	f00e 4e00 	and.w	lr, lr, #2147483648	; 0x80000000
    ca2c:	ea4e 3111 	orr.w	r1, lr, r1, lsr #12
    ca30:	eb14 045c 	adds.w	r4, r4, ip, lsr #1
    ca34:	bfc2      	ittt	gt
    ca36:	ebd4 050c 	rsbsgt	r5, r4, ip
    ca3a:	ea41 5104 	orrgt.w	r1, r1, r4, lsl #20
    ca3e:	bd70      	popgt	{r4, r5, r6, pc}
    ca40:	f441 1180 	orr.w	r1, r1, #1048576	; 0x100000
    ca44:	f04f 0e00 	mov.w	lr, #0
    ca48:	3c01      	subs	r4, #1
    ca4a:	e690      	b.n	c76e <__aeabi_dmul+0xde>
    ca4c:	ea45 0e06 	orr.w	lr, r5, r6
    ca50:	e68d      	b.n	c76e <__aeabi_dmul+0xde>
    ca52:	ea0c 5513 	and.w	r5, ip, r3, lsr #20
    ca56:	ea94 0f0c 	teq	r4, ip
    ca5a:	bf08      	it	eq
    ca5c:	ea95 0f0c 	teqeq	r5, ip
    ca60:	f43f af3b 	beq.w	c8da <__aeabi_dmul+0x24a>
    ca64:	ea94 0f0c 	teq	r4, ip
    ca68:	d10a      	bne.n	ca80 <__aeabi_ddiv+0x19c>
    ca6a:	ea50 3401 	orrs.w	r4, r0, r1, lsl #12
    ca6e:	f47f af34 	bne.w	c8da <__aeabi_dmul+0x24a>
    ca72:	ea95 0f0c 	teq	r5, ip
    ca76:	f47f af25 	bne.w	c8c4 <__aeabi_dmul+0x234>
    ca7a:	4610      	mov	r0, r2
    ca7c:	4619      	mov	r1, r3
    ca7e:	e72c      	b.n	c8da <__aeabi_dmul+0x24a>
    ca80:	ea95 0f0c 	teq	r5, ip
    ca84:	d106      	bne.n	ca94 <__aeabi_ddiv+0x1b0>
    ca86:	ea52 3503 	orrs.w	r5, r2, r3, lsl #12
    ca8a:	f43f aefd 	beq.w	c888 <__aeabi_dmul+0x1f8>
    ca8e:	4610      	mov	r0, r2
    ca90:	4619      	mov	r1, r3
    ca92:	e722      	b.n	c8da <__aeabi_dmul+0x24a>
    ca94:	ea50 0641 	orrs.w	r6, r0, r1, lsl #1
    ca98:	bf18      	it	ne
    ca9a:	ea52 0643 	orrsne.w	r6, r2, r3, lsl #1
    ca9e:	f47f aec5 	bne.w	c82c <__aeabi_dmul+0x19c>
    caa2:	ea50 0441 	orrs.w	r4, r0, r1, lsl #1
    caa6:	f47f af0d 	bne.w	c8c4 <__aeabi_dmul+0x234>
    caaa:	ea52 0543 	orrs.w	r5, r2, r3, lsl #1
    caae:	f47f aeeb 	bne.w	c888 <__aeabi_dmul+0x1f8>
    cab2:	e712      	b.n	c8da <__aeabi_dmul+0x24a>

0000cab4 <__gedf2>:
    cab4:	f04f 3cff 	mov.w	ip, #4294967295	; 0xffffffff
    cab8:	e006      	b.n	cac8 <__cmpdf2+0x4>
    caba:	bf00      	nop

0000cabc <__ledf2>:
    cabc:	f04f 0c01 	mov.w	ip, #1
    cac0:	e002      	b.n	cac8 <__cmpdf2+0x4>
    cac2:	bf00      	nop

0000cac4 <__cmpdf2>:
    cac4:	f04f 0c01 	mov.w	ip, #1
    cac8:	f84d cd04 	str.w	ip, [sp, #-4]!
    cacc:	ea4f 0c41 	mov.w	ip, r1, lsl #1
    cad0:	ea7f 5c6c 	mvns.w	ip, ip, asr #21
    cad4:	ea4f 0c43 	mov.w	ip, r3, lsl #1
    cad8:	bf18      	it	ne
    cada:	ea7f 5c6c 	mvnsne.w	ip, ip, asr #21
    cade:	d01b      	beq.n	cb18 <__cmpdf2+0x54>
    cae0:	b001      	add	sp, #4
    cae2:	ea50 0c41 	orrs.w	ip, r0, r1, lsl #1
    cae6:	bf0c      	ite	eq
    cae8:	ea52 0c43 	orrseq.w	ip, r2, r3, lsl #1
    caec:	ea91 0f03 	teqne	r1, r3
    caf0:	bf02      	ittt	eq
    caf2:	ea90 0f02 	teqeq	r0, r2
    caf6:	2000      	moveq	r0, #0
    caf8:	4770      	bxeq	lr
    cafa:	f110 0f00 	cmn.w	r0, #0
    cafe:	ea91 0f03 	teq	r1, r3
    cb02:	bf58      	it	pl
    cb04:	4299      	cmppl	r1, r3
    cb06:	bf08      	it	eq
    cb08:	4290      	cmpeq	r0, r2
    cb0a:	bf2c      	ite	cs
    cb0c:	17d8      	asrcs	r0, r3, #31
    cb0e:	ea6f 70e3 	mvncc.w	r0, r3, asr #31
    cb12:	f040 0001 	orr.w	r0, r0, #1
    cb16:	4770      	bx	lr
    cb18:	ea4f 0c41 	mov.w	ip, r1, lsl #1
    cb1c:	ea7f 5c6c 	mvns.w	ip, ip, asr #21
    cb20:	d102      	bne.n	cb28 <__cmpdf2+0x64>
    cb22:	ea50 3c01 	orrs.w	ip, r0, r1, lsl #12
    cb26:	d107      	bne.n	cb38 <__cmpdf2+0x74>
    cb28:	ea4f 0c43 	mov.w	ip, r3, lsl #1
    cb2c:	ea7f 5c6c 	mvns.w	ip, ip, asr #21
    cb30:	d1d6      	bne.n	cae0 <__cmpdf2+0x1c>
    cb32:	ea52 3c03 	orrs.w	ip, r2, r3, lsl #12
    cb36:	d0d3      	beq.n	cae0 <__cmpdf2+0x1c>
    cb38:	f85d 0b04 	ldr.w	r0, [sp], #4
    cb3c:	4770      	bx	lr
    cb3e:	bf00      	nop

0000cb40 <__aeabi_cdrcmple>:
    cb40:	4684      	mov	ip, r0
    cb42:	4610      	mov	r0, r2
    cb44:	4662      	mov	r2, ip
    cb46:	468c      	mov	ip, r1
    cb48:	4619      	mov	r1, r3
    cb4a:	4663      	mov	r3, ip
    cb4c:	e000      	b.n	cb50 <__aeabi_cdcmpeq>
    cb4e:	bf00      	nop

0000cb50 <__aeabi_cdcmpeq>:
    cb50:	b501      	push	{r0, lr}
    cb52:	f7ff ffb7 	bl	cac4 <__cmpdf2>
    cb56:	2800      	cmp	r0, #0
    cb58:	bf48      	it	mi
    cb5a:	f110 0f00 	cmnmi.w	r0, #0
    cb5e:	bd01      	pop	{r0, pc}

0000cb60 <__aeabi_dcmpeq>:
    cb60:	f84d ed08 	str.w	lr, [sp, #-8]!
    cb64:	f7ff fff4 	bl	cb50 <__aeabi_cdcmpeq>
    cb68:	bf0c      	ite	eq
    cb6a:	2001      	moveq	r0, #1
    cb6c:	2000      	movne	r0, #0
    cb6e:	f85d fb08 	ldr.w	pc, [sp], #8
    cb72:	bf00      	nop

0000cb74 <__aeabi_dcmplt>:
    cb74:	f84d ed08 	str.w	lr, [sp, #-8]!
    cb78:	f7ff ffea 	bl	cb50 <__aeabi_cdcmpeq>
    cb7c:	bf34      	ite	cc
    cb7e:	2001      	movcc	r0, #1
    cb80:	2000      	movcs	r0, #0
    cb82:	f85d fb08 	ldr.w	pc, [sp], #8
    cb86:	bf00      	nop

0000cb88 <__aeabi_dcmple>:
    cb88:	f84d ed08 	str.w	lr, [sp, #-8]!
    cb8c:	f7ff ffe0 	bl	cb50 <__aeabi_cdcmpeq>
    cb90:	bf94      	ite	ls
    cb92:	2001      	movls	r0, #1
    cb94:	2000      	movhi	r0, #0
    cb96:	f85d fb08 	ldr.w	pc, [sp], #8
    cb9a:	bf00      	nop

0000cb9c <__aeabi_dcmpge>:
    cb9c:	f84d ed08 	str.w	lr, [sp, #-8]!
    cba0:	f7ff ffce 	bl	cb40 <__aeabi_cdrcmple>
    cba4:	bf94      	ite	ls
    cba6:	2001      	movls	r0, #1
    cba8:	2000      	movhi	r0, #0
    cbaa:	f85d fb08 	ldr.w	pc, [sp], #8
    cbae:	bf00      	nop

0000cbb0 <__aeabi_dcmpgt>:
    cbb0:	f84d ed08 	str.w	lr, [sp, #-8]!
    cbb4:	f7ff ffc4 	bl	cb40 <__aeabi_cdrcmple>
    cbb8:	bf34      	ite	cc
    cbba:	2001      	movcc	r0, #1
    cbbc:	2000      	movcs	r0, #0
    cbbe:	f85d fb08 	ldr.w	pc, [sp], #8
    cbc2:	bf00      	nop

0000cbc4 <__aeabi_dcmpun>:
    cbc4:	ea4f 0c41 	mov.w	ip, r1, lsl #1
    cbc8:	ea7f 5c6c 	mvns.w	ip, ip, asr #21
    cbcc:	d102      	bne.n	cbd4 <__aeabi_dcmpun+0x10>
    cbce:	ea50 3c01 	orrs.w	ip, r0, r1, lsl #12
    cbd2:	d10a      	bne.n	cbea <__aeabi_dcmpun+0x26>
    cbd4:	ea4f 0c43 	mov.w	ip, r3, lsl #1
    cbd8:	ea7f 5c6c 	mvns.w	ip, ip, asr #21
    cbdc:	d102      	bne.n	cbe4 <__aeabi_dcmpun+0x20>
    cbde:	ea52 3c03 	orrs.w	ip, r2, r3, lsl #12
    cbe2:	d102      	bne.n	cbea <__aeabi_dcmpun+0x26>
    cbe4:	f04f 0000 	mov.w	r0, #0
    cbe8:	4770      	bx	lr
    cbea:	f04f 0001 	mov.w	r0, #1
    cbee:	4770      	bx	lr

0000cbf0 <__aeabi_d2f>:
    cbf0:	ea4f 0241 	mov.w	r2, r1, lsl #1
    cbf4:	f1b2 43e0 	subs.w	r3, r2, #1879048192	; 0x70000000
    cbf8:	bf24      	itt	cs
    cbfa:	f5b3 1c00 	subscs.w	ip, r3, #2097152	; 0x200000
    cbfe:	f1dc 5cfe 	rsbscs	ip, ip, #532676608	; 0x1fc00000
    cc02:	d90d      	bls.n	cc20 <__aeabi_d2f+0x30>
    cc04:	f001 4c00 	and.w	ip, r1, #2147483648	; 0x80000000
    cc08:	ea4f 02c0 	mov.w	r2, r0, lsl #3
    cc0c:	ea4c 7050 	orr.w	r0, ip, r0, lsr #29
    cc10:	f1b2 4f00 	cmp.w	r2, #2147483648	; 0x80000000
    cc14:	eb40 0083 	adc.w	r0, r0, r3, lsl #2
    cc18:	bf08      	it	eq
    cc1a:	f020 0001 	biceq.w	r0, r0, #1
    cc1e:	4770      	bx	lr
    cc20:	f011 4f80 	tst.w	r1, #1073741824	; 0x40000000
    cc24:	d121      	bne.n	cc6a <__aeabi_d2f+0x7a>
    cc26:	f113 7238 	adds.w	r2, r3, #48234496	; 0x2e00000
    cc2a:	bfbc      	itt	lt
    cc2c:	f001 4000 	andlt.w	r0, r1, #2147483648	; 0x80000000
    cc30:	4770      	bxlt	lr
    cc32:	f441 1180 	orr.w	r1, r1, #1048576	; 0x100000
    cc36:	ea4f 5252 	mov.w	r2, r2, lsr #21
    cc3a:	f1c2 0218 	rsb	r2, r2, #24
    cc3e:	f1c2 0c20 	rsb	ip, r2, #32
    cc42:	fa10 f30c 	lsls.w	r3, r0, ip
    cc46:	fa20 f002 	lsr.w	r0, r0, r2
    cc4a:	bf18      	it	ne
    cc4c:	f040 0001 	orrne.w	r0, r0, #1
    cc50:	ea4f 23c1 	mov.w	r3, r1, lsl #11
    cc54:	ea4f 23d3 	mov.w	r3, r3, lsr #11
    cc58:	fa03 fc0c 	lsl.w	ip, r3, ip
    cc5c:	ea40 000c 	orr.w	r0, r0, ip
    cc60:	fa23 f302 	lsr.w	r3, r3, r2
    cc64:	ea4f 0343 	mov.w	r3, r3, lsl #1
    cc68:	e7cc      	b.n	cc04 <__aeabi_d2f+0x14>
    cc6a:	ea7f 5362 	mvns.w	r3, r2, asr #21
    cc6e:	d107      	bne.n	cc80 <__aeabi_d2f+0x90>
    cc70:	ea50 3301 	orrs.w	r3, r0, r1, lsl #12
    cc74:	bf1e      	ittt	ne
    cc76:	f04f 40fe 	movne.w	r0, #2130706432	; 0x7f000000
    cc7a:	f440 0040 	orrne.w	r0, r0, #12582912	; 0xc00000
    cc7e:	4770      	bxne	lr
    cc80:	f001 4000 	and.w	r0, r1, #2147483648	; 0x80000000
    cc84:	f040 40fe 	orr.w	r0, r0, #2130706432	; 0x7f000000
    cc88:	f440 0000 	orr.w	r0, r0, #8388608	; 0x800000
    cc8c:	4770      	bx	lr
    cc8e:	bf00      	nop

0000cc90 <set_low_power>:
    .eGPInput = AM_HAL_GPIO_PIN_INPUT_ENABLE,
};


// setting everything in the lowest operating mode for optimal energy
int set_low_power() {
    cc90:	b508      	push	{r3, lr}
    // Configure the board for low power operation.
    am_bsp_low_power_init();
    cc92:	f000 fe17 	bl	d8c4 <am_bsp_low_power_init>
	uint32_t msg;
    while( ( msg = am_hal_pwrctrl_low_power_init() ) != AM_HAL_STATUS_SUCCESS )
    cc96:	f001 fb85 	bl	e3a4 <am_hal_pwrctrl_low_power_init>
    cc9a:	2800      	cmp	r0, #0
    cc9c:	d1fb      	bne.n	cc96 <set_low_power+0x6>
        ;*/
    
#if defined(AM_PART_APOLLO3) || defined(AM_PART_APOLLO3P)

    // For optimal Deep Sleep current, configure cache to be powered-down in deepsleep:
    am_hal_pwrctrl_memory_deepsleep_powerdown(AM_HAL_PWRCTRL_MEM_CACHE);
    cc9e:	2010      	movs	r0, #16
    cca0:	f001 fb56 	bl	e350 <am_hal_pwrctrl_memory_deepsleep_powerdown>

    // Power down uneeded SRAM, whole FLASH, only 96K SRAM retained
    while( ( msg = am_hal_pwrctrl_memory_deepsleep_powerdown(AM_HAL_PWRCTRL_MEM_FLASH_1M) ) != AM_HAL_STATUS_SUCCESS )
    cca4:	200f      	movs	r0, #15
    cca6:	f001 fb53 	bl	e350 <am_hal_pwrctrl_memory_deepsleep_powerdown>
    ccaa:	2800      	cmp	r0, #0
    ccac:	d1fa      	bne.n	cca4 <set_low_power+0x14>
#ifdef PRINTING_ON
        am_util_stdio_printf("Failed to set am_hal_pwrctrl_memory_deepsleep_powerdown for FLASH 1M: %d\n", msg)
#endif
    ;

    while( ( msg = am_hal_pwrctrl_memory_deepsleep_retain(AM_HAL_PWRCTRL_MEM_SRAM_MAX) ) != AM_HAL_STATUS_SUCCESS )
    ccae:	200d      	movs	r0, #13
    ccb0:	f001 fb62 	bl	e378 <am_hal_pwrctrl_memory_deepsleep_retain>
    ccb4:	2800      	cmp	r0, #0
    ccb6:	d1fa      	bne.n	ccae <set_low_power+0x1e>
#ifdef PRINTING
        am_util_stdio_printf("Failed to set am_hal_pwrctrl_memory_deepsleep_retain for SRAM 96K: %d\n", msg)
#endif
    ;
#endif // AM_PART_APOLLO3
}
    ccb8:	bd08      	pop	{r3, pc}
    ccba:	bf00      	nop

0000ccbc <set_buttons_and_leds>:


// configuring buttons and leds
// keep the led off for best current
void set_buttons_and_leds() {
    ccbc:	b5f0      	push	{r4, r5, r6, r7, lr}
    #if defined(AM_BSP_NUM_BUTTONS)  &&  defined(AM_BSP_NUM_LEDS)
    // Configure the button pin.
    am_hal_gpio_pinconfig(AM_BSP_GPIO_BUTTON0, g_deepsleep_button0);
    ccbe:	4b16      	ldr	r3, [pc, #88]	; (cd18 <set_buttons_and_leds+0x5c>)
    // Configure the LEDs.
    am_devices_led_array_init(am_bsp_psLEDs, AM_BSP_NUM_LEDS);
    // Turn the LEDs off, but initialize LED1 on so user will see something.
    for (int ix = 0; ix < AM_BSP_NUM_LEDS; ix++)
    {
        am_devices_led_off(am_bsp_psLEDs, ix);
    ccc0:	4d16      	ldr	r5, [pc, #88]	; (cd1c <set_buttons_and_leds+0x60>)
    am_hal_gpio_pinconfig(AM_BSP_GPIO_BUTTON0, g_deepsleep_button0);
    ccc2:	6819      	ldr	r1, [r3, #0]
void set_buttons_and_leds() {
    ccc4:	b083      	sub	sp, #12
    am_hal_gpio_pinconfig(AM_BSP_GPIO_BUTTON0, g_deepsleep_button0);
    ccc6:	2010      	movs	r0, #16
    ccc8:	f001 f8b0 	bl	de2c <am_hal_gpio_pinconfig>
    am_hal_gpio_pinconfig( GPIO_OUTPUT_PIN, g_AM_HAL_GPIO_OUTPUT);
    cccc:	4b14      	ldr	r3, [pc, #80]	; (cd20 <set_buttons_and_leds+0x64>)
    am_hal_gpio_interrupt_clear(AM_HAL_GPIO_MASKBIT(pGpioIntMask, AM_BSP_GPIO_BUTTON0));
    ccce:	f44f 3680 	mov.w	r6, #65536	; 0x10000
    ccd2:	2700      	movs	r7, #0
    am_hal_gpio_pinconfig( GPIO_OUTPUT_PIN, g_AM_HAL_GPIO_OUTPUT);
    ccd4:	6819      	ldr	r1, [r3, #0]
    ccd6:	202d      	movs	r0, #45	; 0x2d
    ccd8:	f001 f8a8 	bl	de2c <am_hal_gpio_pinconfig>
    AM_HAL_GPIO_MASKCREATE(GpioIntMask);
    ccdc:	2200      	movs	r2, #0
    ccde:	2300      	movs	r3, #0
    am_hal_gpio_interrupt_clear(AM_HAL_GPIO_MASKBIT(pGpioIntMask, AM_BSP_GPIO_BUTTON0));
    cce0:	4639      	mov	r1, r7
    cce2:	4630      	mov	r0, r6
    AM_HAL_GPIO_MASKCREATE(GpioIntMask);
    cce4:	e9cd 2300 	strd	r2, r3, [sp]
    am_hal_gpio_interrupt_clear(AM_HAL_GPIO_MASKBIT(pGpioIntMask, AM_BSP_GPIO_BUTTON0));
    cce8:	e9cd 6700 	strd	r6, r7, [sp]
    ccec:	f001 fa38 	bl	e160 <am_hal_gpio_interrupt_clear>
    am_hal_gpio_interrupt_enable(AM_HAL_GPIO_MASKBIT(pGpioIntMask, AM_BSP_GPIO_BUTTON0));
    ccf0:	4639      	mov	r1, r7
    ccf2:	4630      	mov	r0, r6
    ccf4:	e9cd 6700 	strd	r6, r7, [sp]
    ccf8:	f001 fa12 	bl	e120 <am_hal_gpio_interrupt_enable>
    am_devices_led_array_init(am_bsp_psLEDs, AM_BSP_NUM_LEDS);
    ccfc:	2105      	movs	r1, #5
    ccfe:	4628      	mov	r0, r5
    cd00:	f000 f8d8 	bl	ceb4 <am_devices_led_array_init>
    for (int ix = 0; ix < AM_BSP_NUM_LEDS; ix++)
    cd04:	2400      	movs	r4, #0
        am_devices_led_off(am_bsp_psLEDs, ix);
    cd06:	4621      	mov	r1, r4
    cd08:	4628      	mov	r0, r5
    for (int ix = 0; ix < AM_BSP_NUM_LEDS; ix++)
    cd0a:	3401      	adds	r4, #1
        am_devices_led_off(am_bsp_psLEDs, ix);
    cd0c:	f000 f8fc 	bl	cf08 <am_devices_led_off>
    for (int ix = 0; ix < AM_BSP_NUM_LEDS; ix++)
    cd10:	2c05      	cmp	r4, #5
    cd12:	d1f8      	bne.n	cd06 <set_buttons_and_leds+0x4a>
    }
    //am_devices_led_on(am_bsp_psLEDs, 1);

    #endif // defined(AM_BSP_NUM_BUTTONS)  &&  defined(AM_BSP_NUM_LEDS)
}
    cd14:	b003      	add	sp, #12
    cd16:	bdf0      	pop	{r4, r5, r6, r7, pc}
    cd18:	0000e720 	.word	0x0000e720
    cd1c:	10003f10 	.word	0x10003f10
    cd20:	0001665c 	.word	0x0001665c

0000cd24 <am_gpio_isr>:

// **** MAIN FUNCTIONALITY IS HERE **** 
// WAKE UP FROM DEEP SLEEP AFTER BUTTON 0 PRESS
// SPI TRANSFER AND APPLICATION RUNNING
void am_gpio_isr(void)
{
    cd24:	b530      	push	{r4, r5, lr}
    //am_devices_led_off(am_bsp_psLEDs, 1);
    
    // Clear the GPIO Interrupt (write to clear).
    AM_HAL_GPIO_MASKCREATE(GpioIntMask);
    am_hal_gpio_interrupt_clear(AM_HAL_GPIO_MASKBIT(pGpioIntMask, AM_BSP_GPIO_BUTTON0));
    cd26:	f44f 3280 	mov.w	r2, #65536	; 0x10000
    cd2a:	2300      	movs	r3, #0
{
    cd2c:	b083      	sub	sp, #12
    am_hal_gpio_interrupt_clear(AM_HAL_GPIO_MASKBIT(pGpioIntMask, AM_BSP_GPIO_BUTTON0));
    cd2e:	4619      	mov	r1, r3
    cd30:	4610      	mov	r0, r2
    AM_HAL_GPIO_MASKCREATE(GpioIntMask);
    cd32:	2400      	movs	r4, #0
    cd34:	2500      	movs	r5, #0
    cd36:	e9cd 4500 	strd	r4, r5, [sp]
    am_hal_gpio_interrupt_clear(AM_HAL_GPIO_MASKBIT(pGpioIntMask, AM_BSP_GPIO_BUTTON0));
    cd3a:	e9cd 2300 	strd	r2, r3, [sp]
    cd3e:	f001 fa0f 	bl	e160 <am_hal_gpio_interrupt_clear>
#endif
    ;
#endif
    
    // disable GPIO
    am_hal_gpio_state_write( GPIO_OUTPUT_PIN, AM_HAL_GPIO_OUTPUT_CLEAR);
    cd42:	2100      	movs	r1, #0
    cd44:	202d      	movs	r0, #45	; 0x2d
    cd46:	f001 f9a7 	bl	e098 <am_hal_gpio_state_write>
    // ******* END OF SPI TRANSFER ********
    
    // ******** APPLICATION RUNNING ************
    // Enable GPIO
    am_hal_gpio_state_write( GPIO_OUTPUT_PIN, AM_HAL_GPIO_OUTPUT_SET);
    cd4a:	2101      	movs	r1, #1
    cd4c:	202d      	movs	r0, #45	; 0x2d
    cd4e:	f001 f9a3 	bl	e098 <am_hal_gpio_state_write>
    
    // Run Application
    run_knn();
    cd52:	f000 fd97 	bl	d884 <run_knn>
    
    // disable GPIO
    am_hal_gpio_state_write( GPIO_OUTPUT_PIN, AM_HAL_GPIO_OUTPUT_CLEAR);
    cd56:	2100      	movs	r1, #0
    cd58:	202d      	movs	r0, #45	; 0x2d
    
#ifdef PRINTING_ON
    am_util_stdio_printf("Finished the whole cycle of a Biomedical Application\n");
#endif
    //am_devices_led_on(am_bsp_psLEDs, 1);
}
    cd5a:	b003      	add	sp, #12
    cd5c:	e8bd 4030 	ldmia.w	sp!, {r4, r5, lr}
    am_hal_gpio_state_write( GPIO_OUTPUT_PIN, AM_HAL_GPIO_OUTPUT_CLEAR);
    cd60:	f001 b99a 	b.w	e098 <am_hal_gpio_state_write>

0000cd64 <main>:
//*****************************************************************************
int
main(void)
{
    // Set the clock frequency.
    am_hal_clkgen_control(AM_HAL_CLKGEN_CONTROL_SYSCLK_MAX, 0);
    cd64:	2100      	movs	r1, #0
{
    cd66:	b508      	push	{r3, lr}
    am_hal_clkgen_control(AM_HAL_CLKGEN_CONTROL_SYSCLK_MAX, 0);
    cd68:	4608      	mov	r0, r1
    cd6a:	f000 ff73 	bl	dc54 <am_hal_clkgen_control>

    // Set the default cache configuration
    am_hal_cachectrl_config(&am_hal_cachectrl_defaults);
    cd6e:	4815      	ldr	r0, [pc, #84]	; (cdc4 <main+0x60>)
    cd70:	f000 fdc8 	bl	d904 <am_hal_cachectrl_config>
    am_hal_cachectrl_enable();
    cd74:	f000 fdea 	bl	d94c <am_hal_cachectrl_enable>
    am_util_stdio_terminal_clear();
    am_util_stdio_printf("Deepsleep Wake and SPI master receive Example\n");
#endif
	
    // Go to Deep Sleep.
    set_low_power();
    cd78:	f7ff ff8a 	bl	cc90 <set_low_power>
    
    set_buttons_and_leds();
    cd7c:	f7ff ff9e 	bl	ccbc <set_buttons_and_leds>
__STATIC_INLINE void __NVIC_EnableIRQ(IRQn_Type IRQn)
{
  if ((int32_t)(IRQn) >= 0)
  {
    __COMPILER_BARRIER();
    NVIC->ISER[(((uint32_t)IRQn) >> 5UL)] = (uint32_t)(1UL << (((uint32_t)IRQn) & 0x1FUL));
    cd80:	4b11      	ldr	r3, [pc, #68]	; (cdc8 <main+0x64>)
    cd82:	f44f 5200 	mov.w	r2, #8192	; 0x2000
    cd86:	601a      	str	r2, [r3, #0]

    // Enable GPIO interrupts to the NVIC.
    NVIC_EnableIRQ(GPIO_IRQn);

    // Enable interrupts to the core.
    am_hal_interrupt_master_enable();
    cd88:	f001 fa04 	bl	e194 <am_hal_interrupt_master_enable>
    
	while (1)
    {
        // Go to Deep Sleep.
        am_hal_sysctrl_sleep(AM_HAL_SYSCTRL_SLEEP_DEEP);
    cd8c:	2001      	movs	r0, #1
    cd8e:	f001 fc59 	bl	e644 <am_hal_sysctrl_sleep>
    am_bsp_low_power_init();
    cd92:	f000 fd97 	bl	d8c4 <am_bsp_low_power_init>
    while( ( msg = am_hal_pwrctrl_low_power_init() ) != AM_HAL_STATUS_SUCCESS )
    cd96:	f001 fb05 	bl	e3a4 <am_hal_pwrctrl_low_power_init>
    cd9a:	2800      	cmp	r0, #0
    cd9c:	d1fb      	bne.n	cd96 <main+0x32>
    am_hal_pwrctrl_memory_deepsleep_powerdown(AM_HAL_PWRCTRL_MEM_CACHE);
    cd9e:	2010      	movs	r0, #16
    cda0:	f001 fad6 	bl	e350 <am_hal_pwrctrl_memory_deepsleep_powerdown>
    while( ( msg = am_hal_pwrctrl_memory_deepsleep_powerdown(AM_HAL_PWRCTRL_MEM_FLASH_1M) ) != AM_HAL_STATUS_SUCCESS )
    cda4:	200f      	movs	r0, #15
    cda6:	f001 fad3 	bl	e350 <am_hal_pwrctrl_memory_deepsleep_powerdown>
    cdaa:	2800      	cmp	r0, #0
    cdac:	d1fa      	bne.n	cda4 <main+0x40>
    while( ( msg = am_hal_pwrctrl_memory_deepsleep_retain(AM_HAL_PWRCTRL_MEM_SRAM_MAX) ) != AM_HAL_STATUS_SUCCESS )
    cdae:	200d      	movs	r0, #13
    cdb0:	f001 fae2 	bl	e378 <am_hal_pwrctrl_memory_deepsleep_retain>
    cdb4:	2800      	cmp	r0, #0
    cdb6:	d0e9      	beq.n	cd8c <main+0x28>
    cdb8:	200d      	movs	r0, #13
    cdba:	f001 fadd 	bl	e378 <am_hal_pwrctrl_memory_deepsleep_retain>
    cdbe:	2800      	cmp	r0, #0
    cdc0:	d1f5      	bne.n	cdae <main+0x4a>
    cdc2:	e7e3      	b.n	cd8c <main+0x28>
    cdc4:	00016654 	.word	0x00016654
    cdc8:	e000e100 	.word	0xe000e100

0000cdcc <HardFault_Handler>:
HardFault_Handler(void)
#else // AM_CMSIS_REGS
am_fault_isr(void)
#endif // AM_CMSIS_REGS
{
    __asm("    push    {r0,lr}");       // Always pushes to MSP stack
    cdcc:	b501      	push	{r0, lr}
    __asm("    tst     lr, #4");        // Check if we should use MSP or PSP
    cdce:	f01e 0f04 	tst.w	lr, #4
    __asm("    itet    eq");            // Instrs executed when: eq,ne,eq
    cdd2:	bf0a      	itet	eq
    __asm("    mrseq   r0, msp");       //    bit2=0 indicating MSP stack
    cdd4:	f3ef 8008 	mrseq	r0, MSP
    __asm("    mrsne   r0, psp");       // e: bit2=1 indicating PSP stack
    cdd8:	f3ef 8009 	mrsne	r0, PSP
    __asm("    addseq  r0, r0, #8");    // t: bit2=0, adjust for pushes to MSP stack
    cddc:	f110 0008 	addseq.w	r0, r0, #8
    __asm("    bl      am_util_faultisr_collect_data");
    cde0:	f000 f806 	bl	cdf0 <am_util_faultisr_collect_data>
    __asm("    pop     {r0,pc}");       // Restore from MSP stack
    cde4:	bd01      	pop	{r0, pc}
    cde6:	bf00      	nop

0000cde8 <getStackedReg>:
}

uint32_t __attribute__((naked))
getStackedReg(uint32_t regnum, uint32_t u32SP)
{
    __asm("    lsls    r0, r0, #2");
    cde8:	0080      	lsls	r0, r0, #2
    __asm("    adds    r0, r1");
    cdea:	1840      	adds	r0, r0, r1
    __asm("    ldr     r0, [r0]");
    cdec:	6800      	ldr	r0, [r0, #0]
    __asm("    bx      lr");
    cdee:	4770      	bx	lr

0000cdf0 <am_util_faultisr_collect_data>:
// HardFault_Handler() was called.
//
//*****************************************************************************
void
am_util_faultisr_collect_data(uint32_t u32IsrSP)
{
    cdf0:	b510      	push	{r4, lr}
    volatile am_fault_t sFaultData;
#if (defined(AM_PART_APOLLO4))
    am_hal_fault_status_t  sHalFaultData = {0};
#else
    am_hal_mcuctrl_fault_t sHalFaultData = {0};
    cdf2:	2300      	movs	r3, #0
{
    cdf4:	b092      	sub	sp, #72	; 0x48
    am_hal_mcuctrl_fault_t sHalFaultData = {0};
    cdf6:	e9cd 3300 	strd	r3, r3, [sp]
    cdfa:	e9cd 3302 	strd	r3, r3, [sp, #8]
    cdfe:	e9cd 3304 	strd	r3, r3, [sp, #16]
    // a breakpoint at the end of the routine.  If the printing is not used,
    // we'll get a compiler warning; so to avoid that warning, we'll use it
    // in a dummy assignment here.
    //
    sFaultData.u32CFSR = u32Mask;       // Avoid compiler warning
    sFaultData.u32CFSR = AM_REGVAL(AM_REG_SYSCTRL_CFSR_O);
    ce02:	4a2b      	ldr	r2, [pc, #172]	; (ceb0 <am_util_faultisr_collect_data+0xc0>)
    sFaultData.u32CFSR = u32Mask;       // Avoid compiler warning
    ce04:	9310      	str	r3, [sp, #64]	; 0x40
    sFaultData.u32CFSR = AM_REGVAL(AM_REG_SYSCTRL_CFSR_O);
    ce06:	6813      	ldr	r3, [r2, #0]
    ce08:	9310      	str	r3, [sp, #64]	; 0x40
    sFaultData.u8MMSR  = (sFaultData.u32CFSR >> 0)  & 0xff;
    ce0a:	9b10      	ldr	r3, [sp, #64]	; 0x40
    ce0c:	b2db      	uxtb	r3, r3
    ce0e:	f88d 3044 	strb.w	r3, [sp, #68]	; 0x44
    sFaultData.u8BFSR  = (sFaultData.u32CFSR >> 8)  & 0xff;
    ce12:	9b10      	ldr	r3, [sp, #64]	; 0x40
    ce14:	f3c3 2307 	ubfx	r3, r3, #8, #8
    ce18:	f88d 3045 	strb.w	r3, [sp, #69]	; 0x45
    sFaultData.u16UFSR = (sFaultData.u32CFSR >> 16) & 0xffff;
    ce1c:	9b10      	ldr	r3, [sp, #64]	; 0x40
    ce1e:	0c1b      	lsrs	r3, r3, #16
    ce20:	f8ad 3046 	strh.w	r3, [sp, #70]	; 0x46

    //
    // The address of the location that caused the fault.  e.g. if accessing an
    // invalid data location caused the fault, that address will appear here.
    //
    sFaultData.u32BFAR = AM_REGVAL(AM_REG_SYSCTRL_BFAR_O);
    ce24:	6913      	ldr	r3, [r2, #16]
    ce26:	930f      	str	r3, [sp, #60]	; 0x3c

    //
    // The address of the instruction that caused the fault is the stacked PC
    // if BFSR bit1 is set.
    //
    sFaultData.u32FaultAddr = (sFaultData.u8BFSR & 0x02) ? getStackedReg(6, u32IsrSP) : 0xffffffff;
    ce28:	f89d 3045 	ldrb.w	r3, [sp, #69]	; 0x45
    ce2c:	079b      	lsls	r3, r3, #30
{
    ce2e:	4604      	mov	r4, r0
    sFaultData.u32FaultAddr = (sFaultData.u8BFSR & 0x02) ? getStackedReg(6, u32IsrSP) : 0xffffffff;
    ce30:	d437      	bmi.n	cea2 <am_util_faultisr_collect_data+0xb2>
    ce32:	f04f 33ff 	mov.w	r3, #4294967295	; 0xffffffff

    //
    // Get the stacked registers.
    // Note - the address of the instruction that caused the fault is u32PC.
    //
    sFaultData.u32R0  = getStackedReg(0, u32IsrSP);
    ce36:	4621      	mov	r1, r4
    ce38:	2000      	movs	r0, #0
    sFaultData.u32FaultAddr = (sFaultData.u8BFSR & 0x02) ? getStackedReg(6, u32IsrSP) : 0xffffffff;
    ce3a:	930e      	str	r3, [sp, #56]	; 0x38
    sFaultData.u32R0  = getStackedReg(0, u32IsrSP);
    ce3c:	f7ff ffd4 	bl	cde8 <getStackedReg>
    sFaultData.u32R1  = getStackedReg(1, u32IsrSP);
    ce40:	4621      	mov	r1, r4
    sFaultData.u32R0  = getStackedReg(0, u32IsrSP);
    ce42:	4603      	mov	r3, r0
    sFaultData.u32R1  = getStackedReg(1, u32IsrSP);
    ce44:	2001      	movs	r0, #1
    sFaultData.u32R0  = getStackedReg(0, u32IsrSP);
    ce46:	9306      	str	r3, [sp, #24]
    sFaultData.u32R1  = getStackedReg(1, u32IsrSP);
    ce48:	f7ff ffce 	bl	cde8 <getStackedReg>
    sFaultData.u32R2  = getStackedReg(2, u32IsrSP);
    ce4c:	4621      	mov	r1, r4
    sFaultData.u32R1  = getStackedReg(1, u32IsrSP);
    ce4e:	4603      	mov	r3, r0
    sFaultData.u32R2  = getStackedReg(2, u32IsrSP);
    ce50:	2002      	movs	r0, #2
    sFaultData.u32R1  = getStackedReg(1, u32IsrSP);
    ce52:	9307      	str	r3, [sp, #28]
    sFaultData.u32R2  = getStackedReg(2, u32IsrSP);
    ce54:	f7ff ffc8 	bl	cde8 <getStackedReg>
    sFaultData.u32R3  = getStackedReg(3, u32IsrSP);
    ce58:	4621      	mov	r1, r4
    sFaultData.u32R2  = getStackedReg(2, u32IsrSP);
    ce5a:	4603      	mov	r3, r0
    sFaultData.u32R3  = getStackedReg(3, u32IsrSP);
    ce5c:	2003      	movs	r0, #3
    sFaultData.u32R2  = getStackedReg(2, u32IsrSP);
    ce5e:	9308      	str	r3, [sp, #32]
    sFaultData.u32R3  = getStackedReg(3, u32IsrSP);
    ce60:	f7ff ffc2 	bl	cde8 <getStackedReg>
    sFaultData.u32R12 = getStackedReg(4, u32IsrSP);
    ce64:	4621      	mov	r1, r4
    sFaultData.u32R3  = getStackedReg(3, u32IsrSP);
    ce66:	4603      	mov	r3, r0
    sFaultData.u32R12 = getStackedReg(4, u32IsrSP);
    ce68:	2004      	movs	r0, #4
    sFaultData.u32R3  = getStackedReg(3, u32IsrSP);
    ce6a:	9309      	str	r3, [sp, #36]	; 0x24
    sFaultData.u32R12 = getStackedReg(4, u32IsrSP);
    ce6c:	f7ff ffbc 	bl	cde8 <getStackedReg>
    sFaultData.u32LR  = getStackedReg(5, u32IsrSP);
    ce70:	4621      	mov	r1, r4
    sFaultData.u32R12 = getStackedReg(4, u32IsrSP);
    ce72:	4603      	mov	r3, r0
    sFaultData.u32LR  = getStackedReg(5, u32IsrSP);
    ce74:	2005      	movs	r0, #5
    sFaultData.u32R12 = getStackedReg(4, u32IsrSP);
    ce76:	930a      	str	r3, [sp, #40]	; 0x28
    sFaultData.u32LR  = getStackedReg(5, u32IsrSP);
    ce78:	f7ff ffb6 	bl	cde8 <getStackedReg>
    sFaultData.u32PC  = getStackedReg(6, u32IsrSP);
    ce7c:	4621      	mov	r1, r4
    sFaultData.u32LR  = getStackedReg(5, u32IsrSP);
    ce7e:	4603      	mov	r3, r0
    sFaultData.u32PC  = getStackedReg(6, u32IsrSP);
    ce80:	2006      	movs	r0, #6
    sFaultData.u32LR  = getStackedReg(5, u32IsrSP);
    ce82:	930b      	str	r3, [sp, #44]	; 0x2c
    sFaultData.u32PC  = getStackedReg(6, u32IsrSP);
    ce84:	f7ff ffb0 	bl	cde8 <getStackedReg>
    sFaultData.u32PSR = getStackedReg(7, u32IsrSP);
    ce88:	4621      	mov	r1, r4
    sFaultData.u32PC  = getStackedReg(6, u32IsrSP);
    ce8a:	4603      	mov	r3, r0
    sFaultData.u32PSR = getStackedReg(7, u32IsrSP);
    ce8c:	2007      	movs	r0, #7
    sFaultData.u32PC  = getStackedReg(6, u32IsrSP);
    ce8e:	930c      	str	r3, [sp, #48]	; 0x30
    sFaultData.u32PSR = getStackedReg(7, u32IsrSP);
    ce90:	f7ff ffaa 	bl	cde8 <getStackedReg>
    //
#if (defined(AM_PART_APOLLO4))
    am_hal_fault_status_get(&sHalFaultData);
#else
#if AM_APOLLO3_MCUCTRL
    am_hal_mcuctrl_info_get(AM_HAL_MCUCTRL_INFO_FAULT_STATUS, &sHalFaultData);
    ce94:	4669      	mov	r1, sp
    sFaultData.u32PSR = getStackedReg(7, u32IsrSP);
    ce96:	4603      	mov	r3, r0
    am_hal_mcuctrl_info_get(AM_HAL_MCUCTRL_INFO_FAULT_STATUS, &sHalFaultData);
    ce98:	2002      	movs	r0, #2
    sFaultData.u32PSR = getStackedReg(7, u32IsrSP);
    ce9a:	930d      	str	r3, [sp, #52]	; 0x34
    am_hal_mcuctrl_info_get(AM_HAL_MCUCTRL_INFO_FAULT_STATUS, &sHalFaultData);
    ce9c:	f001 f986 	bl	e1ac <am_hal_mcuctrl_info_get>
    //
    // Spin in an infinite loop.
    // We need to spin here inside the function so that we have access to
    // local data, i.e. sFaultData.
    //
    while (1)
    cea0:	e7fe      	b.n	cea0 <am_util_faultisr_collect_data+0xb0>
    sFaultData.u32FaultAddr = (sFaultData.u8BFSR & 0x02) ? getStackedReg(6, u32IsrSP) : 0xffffffff;
    cea2:	4601      	mov	r1, r0
    cea4:	2006      	movs	r0, #6
    cea6:	f7ff ff9f 	bl	cde8 <getStackedReg>
    ceaa:	4603      	mov	r3, r0
    ceac:	e7c3      	b.n	ce36 <am_util_faultisr_collect_data+0x46>
    ceae:	bf00      	nop
    ceb0:	e000ed28 	.word	0xe000ed28

0000ceb4 <am_devices_led_array_init>:
void
am_devices_led_array_init(am_devices_led_t *psLEDs, uint32_t ui32NumLEDs)
{
    uint32_t i;

    if ( (psLEDs == NULL)                       ||
    ceb4:	b318      	cbz	r0, cefe <am_devices_led_array_init+0x4a>
{
    ceb6:	b5f8      	push	{r3, r4, r5, r6, r7, lr}
    }

    //
    // Loop through the list of LEDs, configuring each one individually.
    //
    for ( i = 0; i < ui32NumLEDs; i++ )
    ceb8:	1e4b      	subs	r3, r1, #1
    ceba:	2b1e      	cmp	r3, #30
    cebc:	d81e      	bhi.n	cefc <am_devices_led_array_init+0x48>
    cebe:	eb00 01c1 	add.w	r1, r0, r1, lsl #3
        am_hal_gpio_pinconfig(psLED->ui32GPIONumber, g_AM_HAL_GPIO_TRISTATE);
    cec2:	4f0f      	ldr	r7, [pc, #60]	; (cf00 <am_devices_led_array_init+0x4c>)
        am_hal_gpio_pinconfig(psLED->ui32GPIONumber, g_AM_HAL_GPIO_OUTPUT);
    cec4:	4e0f      	ldr	r6, [pc, #60]	; (cf04 <am_devices_led_array_init+0x50>)
    cec6:	1d0d      	adds	r5, r1, #4
    cec8:	1d04      	adds	r4, r0, #4
         (psLED->ui32GPIONumber >= AM_HAL_GPIO_MAX_PADS) )
    ceca:	f854 0c04 	ldr.w	r0, [r4, #-4]
    if ( (psLED == NULL)    ||
    cece:	2831      	cmp	r0, #49	; 0x31
    ced0:	d811      	bhi.n	cef6 <am_devices_led_array_init+0x42>
    if ( AM_DEVICES_LED_POL_DIRECT_DRIVE_M & psLED->ui32Polarity )
    ced2:	6823      	ldr	r3, [r4, #0]
    ced4:	079b      	lsls	r3, r3, #30
        am_hal_gpio_pinconfig(psLED->ui32GPIONumber, g_AM_HAL_GPIO_OUTPUT);
    ced6:	bf4c      	ite	mi
    ced8:	6831      	ldrmi	r1, [r6, #0]
        am_hal_gpio_pinconfig(psLED->ui32GPIONumber, g_AM_HAL_GPIO_TRISTATE);
    ceda:	6839      	ldrpl	r1, [r7, #0]
    cedc:	f000 ffa6 	bl	de2c <am_hal_gpio_pinconfig>
        am_hal_gpio_state_write(psLED->ui32GPIONumber, AM_HAL_GPIO_OUTPUT_TRISTATE_DISABLE);
    cee0:	2103      	movs	r1, #3
    cee2:	f854 0c04 	ldr.w	r0, [r4, #-4]
    cee6:	f001 f8d7 	bl	e098 <am_hal_gpio_state_write>
        am_hal_gpio_state_write(psLED->ui32GPIONumber,
    ceea:	e954 0101 	ldrd	r0, r1, [r4, #-4]
    ceee:	f001 0101 	and.w	r1, r1, #1
    cef2:	f001 f8d1 	bl	e098 <am_hal_gpio_state_write>
    for ( i = 0; i < ui32NumLEDs; i++ )
    cef6:	3408      	adds	r4, #8
    cef8:	42ac      	cmp	r4, r5
    cefa:	d1e6      	bne.n	ceca <am_devices_led_array_init+0x16>
    {
        am_devices_led_init(psLEDs + i);
    }
}
    cefc:	bdf8      	pop	{r3, r4, r5, r6, r7, pc}
    cefe:	4770      	bx	lr
    cf00:	00016660 	.word	0x00016660
    cf04:	0001665c 	.word	0x0001665c

0000cf08 <am_devices_led_off>:
//
//*****************************************************************************
void
am_devices_led_off(am_devices_led_t *psLEDs, uint32_t ui32LEDNum)
{
    if ( (psLEDs == NULL)                       ||
    cf08:	b180      	cbz	r0, cf2c <am_devices_led_off+0x24>
    cf0a:	291e      	cmp	r1, #30
    cf0c:	d80e      	bhi.n	cf2c <am_devices_led_off+0x24>
         (ui32LEDNum >= MAX_LEDS)               ||
         (psLEDs[ui32LEDNum].ui32GPIONumber >= AM_HAL_GPIO_MAX_PADS) )
    cf0e:	f850 3031 	ldr.w	r3, [r0, r1, lsl #3]
         (ui32LEDNum >= MAX_LEDS)               ||
    cf12:	2b31      	cmp	r3, #49	; 0x31
         (psLEDs[ui32LEDNum].ui32GPIONumber >= AM_HAL_GPIO_MAX_PADS) )
    cf14:	eb00 01c1 	add.w	r1, r0, r1, lsl #3
         (ui32LEDNum >= MAX_LEDS)               ||
    cf18:	d808      	bhi.n	cf2c <am_devices_led_off+0x24>
#else
#if (1 == AM_APOLLO3_GPIO)
    //
    // Handle Direct Drive Versus 3-State (with pull-up or no buffer).
    //
    if ( AM_DEVICES_LED_POL_DIRECT_DRIVE_M & psLEDs[ui32LEDNum].ui32Polarity )
    cf1a:	6849      	ldr	r1, [r1, #4]
    cf1c:	078a      	lsls	r2, r1, #30
    cf1e:	d506      	bpl.n	cf2e <am_devices_led_off+0x26>
    {
        //
        // Set the output to the correct state for the LED.
        //
        am_hal_gpio_state_write(psLEDs[ui32LEDNum].ui32GPIONumber,
    cf20:	43c9      	mvns	r1, r1
    cf22:	f001 0101 	and.w	r1, r1, #1
    cf26:	4618      	mov	r0, r3
    cf28:	f001 b8b6 	b.w	e098 <am_hal_gpio_state_write>
        //
        am_hal_gpio_out_enable_bit_clear(psLEDs[ui32LEDNum].ui32GPIONumber);
    }
#endif // AM_APOLLO3_GPIO
#endif
}
    cf2c:	4770      	bx	lr
        am_hal_gpio_state_write(psLEDs[ui32LEDNum].ui32GPIONumber,
    cf2e:	4618      	mov	r0, r3
    cf30:	2103      	movs	r1, #3
    cf32:	f001 b8b1 	b.w	e098 <am_hal_gpio_state_write>
    cf36:	bf00      	nop

0000cf38 <pvPortMalloc>:
	pxIterator->pxNextFreeBlock = pxBlockToInsert;									\
}
/*-----------------------------------------------------------*/

void *pvPortMalloc( size_t xWantedSize )
{
    cf38:	b5f8      	push	{r3, r4, r5, r6, r7, lr}
    cf3a:	4605      	mov	r5, r0
BlockLink_t *pxBlock, *pxPreviousBlock, *pxNewBlockLink;
static BaseType_t xHeapHasBeenInitialised = pdFALSE;
void *pvReturn = NULL;

	vTaskSuspendAll();
    cf3c:	f000 f89e 	bl	d07c <vTaskSuspendAll>
	{
		/* If this is the first call to malloc then the heap will require
		initialisation to setup the list of free blocks. */
		if( xHeapHasBeenInitialised == pdFALSE )
    cf40:	4925      	ldr	r1, [pc, #148]	; (cfd8 <pvPortMalloc+0xa0>)
    cf42:	680b      	ldr	r3, [r1, #0]
    cf44:	b96b      	cbnz	r3, cf62 <pvPortMalloc+0x2a>
{
BlockLink_t *pxFirstFreeBlock;
uint8_t *pucAlignedHeap;

	/* Ensure the heap starts on a correctly aligned boundary. */
	pucAlignedHeap = ( uint8_t * ) ( ( ( portPOINTER_SIZE_TYPE ) &ucHeap[ portBYTE_ALIGNMENT ] ) & ( ~( ( portPOINTER_SIZE_TYPE ) portBYTE_ALIGNMENT_MASK ) ) );
    cf46:	4a25      	ldr	r2, [pc, #148]	; (cfdc <pvPortMalloc+0xa4>)
	blocks.  The void cast is used to prevent compiler warnings. */
	xStart.pxNextFreeBlock = ( void * ) pucAlignedHeap;
	xStart.xBlockSize = ( size_t ) 0;

	/* xEnd is used to mark the end of the list of free blocks. */
	xEnd.xBlockSize = configADJUSTED_HEAP_SIZE;
    cf48:	4825      	ldr	r0, [pc, #148]	; (cfe0 <pvPortMalloc+0xa8>)
    cf4a:	4c26      	ldr	r4, [pc, #152]	; (cfe4 <pvPortMalloc+0xac>)
	xStart.pxNextFreeBlock = ( void * ) pucAlignedHeap;
    cf4c:	4e26      	ldr	r6, [pc, #152]	; (cfe8 <pvPortMalloc+0xb0>)
	pucAlignedHeap = ( uint8_t * ) ( ( ( portPOINTER_SIZE_TYPE ) &ucHeap[ portBYTE_ALIGNMENT ] ) & ( ~( ( portPOINTER_SIZE_TYPE ) portBYTE_ALIGNMENT_MASK ) ) );
    cf4e:	f022 0207 	bic.w	r2, r2, #7

	/* To start with there is a single free block that is sized to take up the
	entire heap space. */
	pxFirstFreeBlock = ( void * ) pucAlignedHeap;
	pxFirstFreeBlock->xBlockSize = configADJUSTED_HEAP_SIZE;
	pxFirstFreeBlock->pxNextFreeBlock = &xEnd;
    cf52:	e9c2 0400 	strd	r0, r4, [r2]
	xEnd.pxNextFreeBlock = NULL;
    cf56:	e9c0 3400 	strd	r3, r4, [r0]
	xStart.xBlockSize = ( size_t ) 0;
    cf5a:	6073      	str	r3, [r6, #4]
	xStart.pxNextFreeBlock = ( void * ) pucAlignedHeap;
    cf5c:	6032      	str	r2, [r6, #0]
			xHeapHasBeenInitialised = pdTRUE;
    cf5e:	2601      	movs	r6, #1
    cf60:	600e      	str	r6, [r1, #0]
		if( xWantedSize > 0 )
    cf62:	2d00      	cmp	r5, #0
    cf64:	d02f      	beq.n	cfc6 <pvPortMalloc+0x8e>
			if( ( xWantedSize & portBYTE_ALIGNMENT_MASK ) != 0 )
    cf66:	076b      	lsls	r3, r5, #29
			xWantedSize += heapSTRUCT_SIZE;
    cf68:	f105 0408 	add.w	r4, r5, #8
				xWantedSize += ( portBYTE_ALIGNMENT - ( xWantedSize & portBYTE_ALIGNMENT_MASK ) );
    cf6c:	bf1c      	itt	ne
    cf6e:	f024 0407 	bicne.w	r4, r4, #7
    cf72:	3408      	addne	r4, #8
		if( ( xWantedSize > 0 ) && ( xWantedSize < configADJUSTED_HEAP_SIZE ) )
    cf74:	4b1d      	ldr	r3, [pc, #116]	; (cfec <pvPortMalloc+0xb4>)
    cf76:	1e62      	subs	r2, r4, #1
    cf78:	429a      	cmp	r2, r3
    cf7a:	d828      	bhi.n	cfce <pvPortMalloc+0x96>
			pxBlock = xStart.pxNextFreeBlock;
    cf7c:	481a      	ldr	r0, [pc, #104]	; (cfe8 <pvPortMalloc+0xb0>)
    cf7e:	6803      	ldr	r3, [r0, #0]
			while( ( pxBlock->xBlockSize < xWantedSize ) && ( pxBlock->pxNextFreeBlock != NULL ) )
    cf80:	e003      	b.n	cf8a <pvPortMalloc+0x52>
    cf82:	681a      	ldr	r2, [r3, #0]
    cf84:	b122      	cbz	r2, cf90 <pvPortMalloc+0x58>
    cf86:	4618      	mov	r0, r3
    cf88:	4613      	mov	r3, r2
    cf8a:	6859      	ldr	r1, [r3, #4]
    cf8c:	42a1      	cmp	r1, r4
    cf8e:	d3f8      	bcc.n	cf82 <pvPortMalloc+0x4a>
			if( pxBlock != &xEnd )
    cf90:	4a13      	ldr	r2, [pc, #76]	; (cfe0 <pvPortMalloc+0xa8>)
    cf92:	4293      	cmp	r3, r2
    cf94:	d01b      	beq.n	cfce <pvPortMalloc+0x96>
				pvReturn = ( void * ) ( ( ( uint8_t * ) pxPreviousBlock->pxNextFreeBlock ) + heapSTRUCT_SIZE );
    cf96:	461d      	mov	r5, r3
				if( ( pxBlock->xBlockSize - xWantedSize ) > heapMINIMUM_BLOCK_SIZE )
    cf98:	1b0e      	subs	r6, r1, r4
				pxPreviousBlock->pxNextFreeBlock = pxBlock->pxNextFreeBlock;
    cf9a:	f855 2b08 	ldr.w	r2, [r5], #8
    cf9e:	6002      	str	r2, [r0, #0]
				if( ( pxBlock->xBlockSize - xWantedSize ) > heapMINIMUM_BLOCK_SIZE )
    cfa0:	2e10      	cmp	r6, #16
    cfa2:	d90c      	bls.n	cfbe <pvPortMalloc+0x86>
					pxNewBlockLink = ( void * ) ( ( ( uint8_t * ) pxBlock ) + xWantedSize );
    cfa4:	191f      	adds	r7, r3, r4
					prvInsertBlockIntoFreeList( ( pxNewBlockLink ) );
    cfa6:	4a10      	ldr	r2, [pc, #64]	; (cfe8 <pvPortMalloc+0xb0>)
					pxNewBlockLink->xBlockSize = pxBlock->xBlockSize - xWantedSize;
    cfa8:	607e      	str	r6, [r7, #4]
					pxBlock->xBlockSize = xWantedSize;
    cfaa:	605c      	str	r4, [r3, #4]
					prvInsertBlockIntoFreeList( ( pxNewBlockLink ) );
    cfac:	6879      	ldr	r1, [r7, #4]
    cfae:	4610      	mov	r0, r2
    cfb0:	6812      	ldr	r2, [r2, #0]
    cfb2:	6853      	ldr	r3, [r2, #4]
    cfb4:	428b      	cmp	r3, r1
    cfb6:	d3fa      	bcc.n	cfae <pvPortMalloc+0x76>
    cfb8:	603a      	str	r2, [r7, #0]
    cfba:	4621      	mov	r1, r4
    cfbc:	6007      	str	r7, [r0, #0]
				xFreeBytesRemaining -= pxBlock->xBlockSize;
    cfbe:	4a0c      	ldr	r2, [pc, #48]	; (cff0 <pvPortMalloc+0xb8>)
    cfc0:	6813      	ldr	r3, [r2, #0]
    cfc2:	1a59      	subs	r1, r3, r1
    cfc4:	6011      	str	r1, [r2, #0]
	( void ) xTaskResumeAll();
    cfc6:	f000 f98f 	bl	d2e8 <xTaskResumeAll>
}
    cfca:	4628      	mov	r0, r5
    cfcc:	bdf8      	pop	{r3, r4, r5, r6, r7, pc}
void *pvReturn = NULL;
    cfce:	2500      	movs	r5, #0
	( void ) xTaskResumeAll();
    cfd0:	f000 f98a 	bl	d2e8 <xTaskResumeAll>
}
    cfd4:	4628      	mov	r0, r5
    cfd6:	bdf8      	pop	{r3, r4, r5, r6, r7, pc}
    cfd8:	1004ef4c 	.word	0x1004ef4c
    cfdc:	10003f4c 	.word	0x10003f4c
    cfe0:	1004ef44 	.word	0x1004ef44
    cfe4:	0004aff8 	.word	0x0004aff8
    cfe8:	1004ef50 	.word	0x1004ef50
    cfec:	0004aff6 	.word	0x0004aff6
    cff0:	10001438 	.word	0x10001438

0000cff4 <vPortFree>:
	if( pv != NULL )
    cff4:	b1c0      	cbz	r0, d028 <vPortFree+0x34>
{
    cff6:	b538      	push	{r3, r4, r5, lr}
    cff8:	4604      	mov	r4, r0
		vTaskSuspendAll();
    cffa:	f000 f83f 	bl	d07c <vTaskSuspendAll>
			prvInsertBlockIntoFreeList( ( ( BlockLink_t * ) pxLink ) );
    cffe:	f854 1c04 	ldr.w	r1, [r4, #-4]
    d002:	4b0a      	ldr	r3, [pc, #40]	; (d02c <vPortFree+0x38>)
		puc -= heapSTRUCT_SIZE;
    d004:	f1a4 0508 	sub.w	r5, r4, #8
			prvInsertBlockIntoFreeList( ( ( BlockLink_t * ) pxLink ) );
    d008:	4618      	mov	r0, r3
    d00a:	681b      	ldr	r3, [r3, #0]
    d00c:	685a      	ldr	r2, [r3, #4]
    d00e:	428a      	cmp	r2, r1
    d010:	d3fa      	bcc.n	d008 <vPortFree+0x14>
			xFreeBytesRemaining += pxLink->xBlockSize;
    d012:	4a07      	ldr	r2, [pc, #28]	; (d030 <vPortFree+0x3c>)
			prvInsertBlockIntoFreeList( ( ( BlockLink_t * ) pxLink ) );
    d014:	f844 3c08 	str.w	r3, [r4, #-8]
			xFreeBytesRemaining += pxLink->xBlockSize;
    d018:	6813      	ldr	r3, [r2, #0]
			prvInsertBlockIntoFreeList( ( ( BlockLink_t * ) pxLink ) );
    d01a:	6005      	str	r5, [r0, #0]
			xFreeBytesRemaining += pxLink->xBlockSize;
    d01c:	4419      	add	r1, r3
}
    d01e:	e8bd 4038 	ldmia.w	sp!, {r3, r4, r5, lr}
			xFreeBytesRemaining += pxLink->xBlockSize;
    d022:	6011      	str	r1, [r2, #0]
		( void ) xTaskResumeAll();
    d024:	f000 b960 	b.w	d2e8 <xTaskResumeAll>
    d028:	4770      	bx	lr
    d02a:	bf00      	nop
    d02c:	1004ef50 	.word	0x1004ef50
    d030:	10001438 	.word	0x10001438

0000d034 <vListInsertEnd>:
}
/*-----------------------------------------------------------*/

void vListInsertEnd( List_t * const pxList, ListItem_t * const pxNewListItem )
{
ListItem_t * const pxIndex = pxList->pxIndex;
    d034:	6843      	ldr	r3, [r0, #4]
	pxIndex->pxPrevious = pxNewListItem;

	/* Remember which list the item is in. */
	pxNewListItem->pxContainer = pxList;

	( pxList->uxNumberOfItems )++;
    d036:	6802      	ldr	r2, [r0, #0]
{
    d038:	b410      	push	{r4}
	pxNewListItem->pxPrevious = pxIndex->pxPrevious;
    d03a:	689c      	ldr	r4, [r3, #8]
    d03c:	608c      	str	r4, [r1, #8]
	pxIndex->pxPrevious->pxNext = pxNewListItem;
    d03e:	689c      	ldr	r4, [r3, #8]
	pxNewListItem->pxNext = pxIndex;
    d040:	604b      	str	r3, [r1, #4]
	( pxList->uxNumberOfItems )++;
    d042:	3201      	adds	r2, #1
	pxIndex->pxPrevious->pxNext = pxNewListItem;
    d044:	6061      	str	r1, [r4, #4]
	pxIndex->pxPrevious = pxNewListItem;
    d046:	6099      	str	r1, [r3, #8]
}
    d048:	f85d 4b04 	ldr.w	r4, [sp], #4
	pxNewListItem->pxContainer = pxList;
    d04c:	6108      	str	r0, [r1, #16]
	( pxList->uxNumberOfItems )++;
    d04e:	6002      	str	r2, [r0, #0]
}
    d050:	4770      	bx	lr
    d052:	bf00      	nop

0000d054 <uxListRemove>:

UBaseType_t uxListRemove( ListItem_t * const pxItemToRemove )
{
/* The list item knows which list it is in.  Obtain the list from the list
item. */
List_t * const pxList = pxItemToRemove->pxContainer;
    d054:	6903      	ldr	r3, [r0, #16]
{
    d056:	b410      	push	{r4}

	pxItemToRemove->pxNext->pxPrevious = pxItemToRemove->pxPrevious;
    d058:	e9d0 1201 	ldrd	r1, r2, [r0, #4]

	/* Only used during decision coverage testing. */
	mtCOVERAGE_TEST_DELAY();

	/* Make sure the index is left pointing to a valid item. */
	if( pxList->pxIndex == pxItemToRemove )
    d05c:	685c      	ldr	r4, [r3, #4]
	pxItemToRemove->pxNext->pxPrevious = pxItemToRemove->pxPrevious;
    d05e:	608a      	str	r2, [r1, #8]
	if( pxList->pxIndex == pxItemToRemove )
    d060:	4284      	cmp	r4, r0
	pxItemToRemove->pxPrevious->pxNext = pxItemToRemove->pxNext;
    d062:	6051      	str	r1, [r2, #4]
	{
		pxList->pxIndex = pxItemToRemove->pxPrevious;
    d064:	bf08      	it	eq
    d066:	605a      	streq	r2, [r3, #4]
	{
		mtCOVERAGE_TEST_MARKER();
	}

	pxItemToRemove->pxContainer = NULL;
	( pxList->uxNumberOfItems )--;
    d068:	681a      	ldr	r2, [r3, #0]

	return pxList->uxNumberOfItems;
}
    d06a:	f85d 4b04 	ldr.w	r4, [sp], #4
	pxItemToRemove->pxContainer = NULL;
    d06e:	2100      	movs	r1, #0
	( pxList->uxNumberOfItems )--;
    d070:	3a01      	subs	r2, #1
	pxItemToRemove->pxContainer = NULL;
    d072:	6101      	str	r1, [r0, #16]
	( pxList->uxNumberOfItems )--;
    d074:	601a      	str	r2, [r3, #0]
	return pxList->uxNumberOfItems;
    d076:	6818      	ldr	r0, [r3, #0]
}
    d078:	4770      	bx	lr
    d07a:	bf00      	nop

0000d07c <vTaskSuspendAll>:
{
	/* A critical section is not required as the variable is of type
	BaseType_t.  Please read Richard Barry's reply in the following link to a
	post in the FreeRTOS support forum before reporting this as a bug! -
	http://goo.gl/wu4acr */
	++uxSchedulerSuspended;
    d07c:	4a02      	ldr	r2, [pc, #8]	; (d088 <vTaskSuspendAll+0xc>)
    d07e:	6813      	ldr	r3, [r2, #0]
    d080:	3301      	adds	r3, #1
    d082:	6013      	str	r3, [r2, #0]
}
    d084:	4770      	bx	lr
    d086:	bf00      	nop
    d088:	1004efbc 	.word	0x1004efbc

0000d08c <xTaskIncrementTick>:

#endif /* INCLUDE_xTaskAbortDelay */
/*----------------------------------------------------------*/

BaseType_t xTaskIncrementTick( void )
{
    d08c:	e92d 4ff0 	stmdb	sp!, {r4, r5, r6, r7, r8, r9, sl, fp, lr}

	/* Called by the portable layer each time a tick interrupt occurs.
	Increments the tick then checks to see if the new tick value will cause any
	tasks to be unblocked. */
	traceTASK_INCREMENT_TICK( xTickCount );
	if( uxSchedulerSuspended == ( UBaseType_t ) pdFALSE )
    d090:	4b42      	ldr	r3, [pc, #264]	; (d19c <xTaskIncrementTick+0x110>)
    d092:	681b      	ldr	r3, [r3, #0]
{
    d094:	b083      	sub	sp, #12
	if( uxSchedulerSuspended == ( UBaseType_t ) pdFALSE )
    d096:	2b00      	cmp	r3, #0
    d098:	d149      	bne.n	d12e <xTaskIncrementTick+0xa2>
	{
		/* Minor optimisation.  The tick count cannot change in this
		block. */
		const TickType_t xConstTickCount = xTickCount + ( TickType_t ) 1;
    d09a:	4b41      	ldr	r3, [pc, #260]	; (d1a0 <xTaskIncrementTick+0x114>)
    d09c:	681d      	ldr	r5, [r3, #0]
    d09e:	3501      	adds	r5, #1

		/* Increment the RTOS tick, switching the delayed and overflowed
		delayed lists if it wraps to 0. */
		xTickCount = xConstTickCount;
    d0a0:	601d      	str	r5, [r3, #0]

		if( xConstTickCount == ( TickType_t ) 0U ) /*lint !e774 'if' does not always evaluate to false as it is looking for an overflow. */
    d0a2:	2d00      	cmp	r5, #0
    d0a4:	d051      	beq.n	d14a <xTaskIncrementTick+0xbe>
    d0a6:	f8df a114 	ldr.w	sl, [pc, #276]	; d1bc <xTaskIncrementTick+0x130>

		/* See if this tick has made a timeout expire.  Tasks are stored in
		the	queue in the order of their wake time - meaning once one task
		has been found whose block time has not expired there is no need to
		look any further down the list. */
		if( xConstTickCount >= xNextTaskUnblockTime )
    d0aa:	f8da 3000 	ldr.w	r3, [sl]
    d0ae:	42ab      	cmp	r3, r5
    d0b0:	d863      	bhi.n	d17a <xTaskIncrementTick+0xee>
		{
			for( ;; )
			{
				if( listLIST_IS_EMPTY( pxDelayedTaskList ) != pdFALSE )
    d0b2:	4e3c      	ldr	r6, [pc, #240]	; (d1a4 <xTaskIncrementTick+0x118>)
    d0b4:	6833      	ldr	r3, [r6, #0]
    d0b6:	681c      	ldr	r4, [r3, #0]
    d0b8:	2c00      	cmp	r4, #0
    d0ba:	d060      	beq.n	d17e <xTaskIncrementTick+0xf2>
						mtCOVERAGE_TEST_MARKER();
					}

					/* Place the unblocked task into the appropriate ready
					list. */
					prvAddTaskToReadyList( pxTCB );
    d0bc:	4f3a      	ldr	r7, [pc, #232]	; (d1a8 <xTaskIncrementTick+0x11c>)
    d0be:	f8df 9100 	ldr.w	r9, [pc, #256]	; d1c0 <xTaskIncrementTick+0x134>
					{
						/* Preemption is on, but a context switch should
						only be performed if the unblocked task has a
						priority that is equal to or higher than the
						currently executing task. */
						if( pxTCB->uxPriority >= pxCurrentTCB->uxPriority )
    d0c2:	f8df 8100 	ldr.w	r8, [pc, #256]	; d1c4 <xTaskIncrementTick+0x138>
BaseType_t xSwitchRequired = pdFALSE;
    d0c6:	2400      	movs	r4, #0
    d0c8:	e023      	b.n	d112 <xTaskIncrementTick+0x86>
    d0ca:	9101      	str	r1, [sp, #4]
					( void ) uxListRemove( &( pxTCB->xStateListItem ) );
    d0cc:	f7ff ffc2 	bl	d054 <uxListRemove>
					if( listLIST_ITEM_CONTAINER( &( pxTCB->xEventListItem ) ) != NULL )
    d0d0:	f8db 3028 	ldr.w	r3, [fp, #40]	; 0x28
    d0d4:	9901      	ldr	r1, [sp, #4]
						( void ) uxListRemove( &( pxTCB->xEventListItem ) );
    d0d6:	f10b 0018 	add.w	r0, fp, #24
					if( listLIST_ITEM_CONTAINER( &( pxTCB->xEventListItem ) ) != NULL )
    d0da:	b113      	cbz	r3, d0e2 <xTaskIncrementTick+0x56>
						( void ) uxListRemove( &( pxTCB->xEventListItem ) );
    d0dc:	f7ff ffba 	bl	d054 <uxListRemove>
    d0e0:	9901      	ldr	r1, [sp, #4]
					prvAddTaskToReadyList( pxTCB );
    d0e2:	f8db 302c 	ldr.w	r3, [fp, #44]	; 0x2c
    d0e6:	683a      	ldr	r2, [r7, #0]
    d0e8:	eb03 0083 	add.w	r0, r3, r3, lsl #2
    d0ec:	4293      	cmp	r3, r2
    d0ee:	eb09 0080 	add.w	r0, r9, r0, lsl #2
    d0f2:	bf88      	it	hi
    d0f4:	603b      	strhi	r3, [r7, #0]
    d0f6:	f7ff ff9d 	bl	d034 <vListInsertEnd>
						if( pxTCB->uxPriority >= pxCurrentTCB->uxPriority )
    d0fa:	f8d8 2000 	ldr.w	r2, [r8]
				if( listLIST_IS_EMPTY( pxDelayedTaskList ) != pdFALSE )
    d0fe:	6833      	ldr	r3, [r6, #0]
						if( pxTCB->uxPriority >= pxCurrentTCB->uxPriority )
    d100:	f8db 102c 	ldr.w	r1, [fp, #44]	; 0x2c
    d104:	6ad2      	ldr	r2, [r2, #44]	; 0x2c
				if( listLIST_IS_EMPTY( pxDelayedTaskList ) != pdFALSE )
    d106:	681b      	ldr	r3, [r3, #0]
						{
							xSwitchRequired = pdTRUE;
    d108:	4291      	cmp	r1, r2
    d10a:	bf28      	it	cs
    d10c:	2401      	movcs	r4, #1
				if( listLIST_IS_EMPTY( pxDelayedTaskList ) != pdFALSE )
    d10e:	2b00      	cmp	r3, #0
    d110:	d035      	beq.n	d17e <xTaskIncrementTick+0xf2>
					pxTCB = listGET_OWNER_OF_HEAD_ENTRY( pxDelayedTaskList ); /*lint !e9079 void * is used as this macro is used with timers and co-routines too.  Alignment is known to be fine as the type of the pointer stored and retrieved is the same. */
    d112:	6833      	ldr	r3, [r6, #0]
    d114:	68db      	ldr	r3, [r3, #12]
    d116:	f8d3 b00c 	ldr.w	fp, [r3, #12]
					xItemValue = listGET_LIST_ITEM_VALUE( &( pxTCB->xStateListItem ) );
    d11a:	f8db 3004 	ldr.w	r3, [fp, #4]
					( void ) uxListRemove( &( pxTCB->xStateListItem ) );
    d11e:	f10b 0104 	add.w	r1, fp, #4
					if( xConstTickCount < xItemValue )
    d122:	429d      	cmp	r5, r3
					( void ) uxListRemove( &( pxTCB->xStateListItem ) );
    d124:	4608      	mov	r0, r1
					if( xConstTickCount < xItemValue )
    d126:	d2d0      	bcs.n	d0ca <xTaskIncrementTick+0x3e>
						xNextTaskUnblockTime = xItemValue;
    d128:	f8ca 3000 	str.w	r3, [sl]
						break; /*lint !e9011 Code structure here is deedmed easier to understand with multiple breaks. */
    d12c:	e004      	b.n	d138 <xTaskIncrementTick+0xac>
		}
		#endif /* configUSE_TICK_HOOK */
	}
	else
	{
		++uxPendedTicks;
    d12e:	4a1f      	ldr	r2, [pc, #124]	; (d1ac <xTaskIncrementTick+0x120>)
    d130:	6813      	ldr	r3, [r2, #0]
    d132:	3301      	adds	r3, #1
    d134:	6013      	str	r3, [r2, #0]
BaseType_t xSwitchRequired = pdFALSE;
    d136:	2400      	movs	r4, #0
		#endif
	}

	#if ( configUSE_PREEMPTION == 1 )
	{
		if( xYieldPending != pdFALSE )
    d138:	4b1d      	ldr	r3, [pc, #116]	; (d1b0 <xTaskIncrementTick+0x124>)
    d13a:	681b      	ldr	r3, [r3, #0]
		{
			xSwitchRequired = pdTRUE;
    d13c:	2b00      	cmp	r3, #0
		}
	}
	#endif /* configUSE_PREEMPTION */

	return xSwitchRequired;
}
    d13e:	bf0c      	ite	eq
    d140:	4620      	moveq	r0, r4
    d142:	2001      	movne	r0, #1
    d144:	b003      	add	sp, #12
    d146:	e8bd 8ff0 	ldmia.w	sp!, {r4, r5, r6, r7, r8, r9, sl, fp, pc}
			taskSWITCH_DELAYED_LISTS();
    d14a:	4b16      	ldr	r3, [pc, #88]	; (d1a4 <xTaskIncrementTick+0x118>)
    d14c:	681a      	ldr	r2, [r3, #0]
    d14e:	6812      	ldr	r2, [r2, #0]
    d150:	b992      	cbnz	r2, d178 <xTaskIncrementTick+0xec>
    d152:	4a18      	ldr	r2, [pc, #96]	; (d1b4 <xTaskIncrementTick+0x128>)
    d154:	6818      	ldr	r0, [r3, #0]
    d156:	4918      	ldr	r1, [pc, #96]	; (d1b8 <xTaskIncrementTick+0x12c>)
    d158:	6814      	ldr	r4, [r2, #0]
    d15a:	601c      	str	r4, [r3, #0]
    d15c:	6010      	str	r0, [r2, #0]
    d15e:	680a      	ldr	r2, [r1, #0]
    d160:	3201      	adds	r2, #1
    d162:	600a      	str	r2, [r1, #0]

static void prvResetNextTaskUnblockTime( void )
{
TCB_t *pxTCB;

	if( listLIST_IS_EMPTY( pxDelayedTaskList ) != pdFALSE )
    d164:	681a      	ldr	r2, [r3, #0]
    d166:	6812      	ldr	r2, [r2, #0]
    d168:	b972      	cbnz	r2, d188 <xTaskIncrementTick+0xfc>
	{
		/* The new current delayed list is empty.  Set xNextTaskUnblockTime to
		the maximum possible value so it is	extremely unlikely that the
		if( xTickCount >= xNextTaskUnblockTime ) test will pass until
		there is an item in the delayed list. */
		xNextTaskUnblockTime = portMAX_DELAY;
    d16a:	f8df a050 	ldr.w	sl, [pc, #80]	; d1bc <xTaskIncrementTick+0x130>
    d16e:	f04f 33ff 	mov.w	r3, #4294967295	; 0xffffffff
    d172:	f8ca 3000 	str.w	r3, [sl]
    d176:	e798      	b.n	d0aa <xTaskIncrementTick+0x1e>
			taskSWITCH_DELAYED_LISTS();
    d178:	e7fe      	b.n	d178 <xTaskIncrementTick+0xec>
BaseType_t xSwitchRequired = pdFALSE;
    d17a:	2400      	movs	r4, #0
    d17c:	e7dc      	b.n	d138 <xTaskIncrementTick+0xac>
					xNextTaskUnblockTime = portMAX_DELAY; /*lint !e961 MISRA exception as the casts are only redundant for some ports. */
    d17e:	f04f 33ff 	mov.w	r3, #4294967295	; 0xffffffff
    d182:	f8ca 3000 	str.w	r3, [sl]
					break;
    d186:	e7d7      	b.n	d138 <xTaskIncrementTick+0xac>
	{
		/* The new current delayed list is not empty, get the value of
		the item at the head of the delayed list.  This is the time at
		which the task at the head of the delayed list should be removed
		from the Blocked state. */
		( pxTCB ) = listGET_OWNER_OF_HEAD_ENTRY( pxDelayedTaskList ); /*lint !e9079 void * is used as this macro is used with timers and co-routines too.  Alignment is known to be fine as the type of the pointer stored and retrieved is the same. */
    d188:	681b      	ldr	r3, [r3, #0]
		xNextTaskUnblockTime = listGET_LIST_ITEM_VALUE( &( ( pxTCB )->xStateListItem ) );
    d18a:	f8df a030 	ldr.w	sl, [pc, #48]	; d1bc <xTaskIncrementTick+0x130>
		( pxTCB ) = listGET_OWNER_OF_HEAD_ENTRY( pxDelayedTaskList ); /*lint !e9079 void * is used as this macro is used with timers and co-routines too.  Alignment is known to be fine as the type of the pointer stored and retrieved is the same. */
    d18e:	68db      	ldr	r3, [r3, #12]
		xNextTaskUnblockTime = listGET_LIST_ITEM_VALUE( &( ( pxTCB )->xStateListItem ) );
    d190:	68db      	ldr	r3, [r3, #12]
    d192:	685b      	ldr	r3, [r3, #4]
    d194:	f8ca 3000 	str.w	r3, [sl]
	}
}
    d198:	e787      	b.n	d0aa <xTaskIncrementTick+0x1e>
    d19a:	bf00      	nop
    d19c:	1004efbc 	.word	0x1004efbc
    d1a0:	1004efe0 	.word	0x1004efe0
    d1a4:	1004ef5c 	.word	0x1004ef5c
    d1a8:	1004efc0 	.word	0x1004efc0
    d1ac:	1004efb8 	.word	0x1004efb8
    d1b0:	1004efe4 	.word	0x1004efe4
    d1b4:	1004ef60 	.word	0x1004ef60
    d1b8:	1004efc8 	.word	0x1004efc8
    d1bc:	1004efc4 	.word	0x1004efc4
    d1c0:	1004ef64 	.word	0x1004ef64
    d1c4:	1004ef58 	.word	0x1004ef58

0000d1c8 <xTaskResumeAll.part.0>:
BaseType_t xTaskResumeAll( void )
    d1c8:	e92d 4ff0 	stmdb	sp!, {r4, r5, r6, r7, r8, r9, sl, fp, lr}
    d1cc:	b083      	sub	sp, #12
	taskENTER_CRITICAL();
    d1ce:	f000 f8f9 	bl	d3c4 <vPortEnterCritical>
		--uxSchedulerSuspended;
    d1d2:	4b3a      	ldr	r3, [pc, #232]	; (d2bc <xTaskResumeAll.part.0+0xf4>)
    d1d4:	681a      	ldr	r2, [r3, #0]
    d1d6:	3a01      	subs	r2, #1
    d1d8:	601a      	str	r2, [r3, #0]
		if( uxSchedulerSuspended == ( UBaseType_t ) pdFALSE )
    d1da:	681b      	ldr	r3, [r3, #0]
    d1dc:	2b00      	cmp	r3, #0
    d1de:	d154      	bne.n	d28a <xTaskResumeAll.part.0+0xc2>
			if( uxCurrentNumberOfTasks > ( UBaseType_t ) 0U )
    d1e0:	4b37      	ldr	r3, [pc, #220]	; (d2c0 <xTaskResumeAll.part.0+0xf8>)
    d1e2:	681b      	ldr	r3, [r3, #0]
    d1e4:	2b00      	cmp	r3, #0
    d1e6:	d050      	beq.n	d28a <xTaskResumeAll.part.0+0xc2>
				while( listLIST_IS_EMPTY( &xPendingReadyList ) == pdFALSE )
    d1e8:	4d36      	ldr	r5, [pc, #216]	; (d2c4 <xTaskResumeAll.part.0+0xfc>)
    d1ea:	682b      	ldr	r3, [r5, #0]
    d1ec:	2b00      	cmp	r3, #0
    d1ee:	d061      	beq.n	d2b4 <xTaskResumeAll.part.0+0xec>
    d1f0:	4e35      	ldr	r6, [pc, #212]	; (d2c8 <xTaskResumeAll.part.0+0x100>)
    d1f2:	f8df 80ec 	ldr.w	r8, [pc, #236]	; d2e0 <xTaskResumeAll.part.0+0x118>
    d1f6:	4f35      	ldr	r7, [pc, #212]	; (d2cc <xTaskResumeAll.part.0+0x104>)
    d1f8:	f8df 90e8 	ldr.w	r9, [pc, #232]	; d2e4 <xTaskResumeAll.part.0+0x11c>
						xYieldPending = pdTRUE;
    d1fc:	f04f 0a01 	mov.w	sl, #1
					pxTCB = listGET_OWNER_OF_HEAD_ENTRY( ( &xPendingReadyList ) ); /*lint !e9079 void * is used as this macro is used with timers and co-routines too.  Alignment is known to be fine as the type of the pointer stored and retrieved is the same. */
    d200:	68eb      	ldr	r3, [r5, #12]
    d202:	68dc      	ldr	r4, [r3, #12]
					( void ) uxListRemove( &( pxTCB->xStateListItem ) );
    d204:	f104 0b04 	add.w	fp, r4, #4
					( void ) uxListRemove( &( pxTCB->xEventListItem ) );
    d208:	f104 0018 	add.w	r0, r4, #24
    d20c:	f7ff ff22 	bl	d054 <uxListRemove>
					( void ) uxListRemove( &( pxTCB->xStateListItem ) );
    d210:	4658      	mov	r0, fp
    d212:	f7ff ff1f 	bl	d054 <uxListRemove>
					prvAddTaskToReadyList( pxTCB );
    d216:	6ae3      	ldr	r3, [r4, #44]	; 0x2c
    d218:	6832      	ldr	r2, [r6, #0]
    d21a:	eb03 0083 	add.w	r0, r3, r3, lsl #2
    d21e:	4293      	cmp	r3, r2
    d220:	4659      	mov	r1, fp
    d222:	eb08 0080 	add.w	r0, r8, r0, lsl #2
    d226:	bf88      	it	hi
    d228:	6033      	strhi	r3, [r6, #0]
    d22a:	f7ff ff03 	bl	d034 <vListInsertEnd>
					if( pxTCB->uxPriority >= pxCurrentTCB->uxPriority )
    d22e:	683b      	ldr	r3, [r7, #0]
    d230:	6ae2      	ldr	r2, [r4, #44]	; 0x2c
    d232:	6adb      	ldr	r3, [r3, #44]	; 0x2c
    d234:	429a      	cmp	r2, r3
    d236:	d330      	bcc.n	d29a <xTaskResumeAll.part.0+0xd2>
						xYieldPending = pdTRUE;
    d238:	f8c9 a000 	str.w	sl, [r9]
				while( listLIST_IS_EMPTY( &xPendingReadyList ) == pdFALSE )
    d23c:	682b      	ldr	r3, [r5, #0]
    d23e:	2b00      	cmp	r3, #0
    d240:	d1de      	bne.n	d200 <xTaskResumeAll.part.0+0x38>
	if( listLIST_IS_EMPTY( pxDelayedTaskList ) != pdFALSE )
    d242:	4b23      	ldr	r3, [pc, #140]	; (d2d0 <xTaskResumeAll.part.0+0x108>)
    d244:	681a      	ldr	r2, [r3, #0]
    d246:	6812      	ldr	r2, [r2, #0]
    d248:	2a00      	cmp	r2, #0
    d24a:	d02e      	beq.n	d2aa <xTaskResumeAll.part.0+0xe2>
		( pxTCB ) = listGET_OWNER_OF_HEAD_ENTRY( pxDelayedTaskList ); /*lint !e9079 void * is used as this macro is used with timers and co-routines too.  Alignment is known to be fine as the type of the pointer stored and retrieved is the same. */
    d24c:	681a      	ldr	r2, [r3, #0]
		xNextTaskUnblockTime = listGET_LIST_ITEM_VALUE( &( ( pxTCB )->xStateListItem ) );
    d24e:	4b21      	ldr	r3, [pc, #132]	; (d2d4 <xTaskResumeAll.part.0+0x10c>)
		( pxTCB ) = listGET_OWNER_OF_HEAD_ENTRY( pxDelayedTaskList ); /*lint !e9079 void * is used as this macro is used with timers and co-routines too.  Alignment is known to be fine as the type of the pointer stored and retrieved is the same. */
    d250:	68d2      	ldr	r2, [r2, #12]
		xNextTaskUnblockTime = listGET_LIST_ITEM_VALUE( &( ( pxTCB )->xStateListItem ) );
    d252:	68d2      	ldr	r2, [r2, #12]
    d254:	6852      	ldr	r2, [r2, #4]
    d256:	601a      	str	r2, [r3, #0]
					UBaseType_t uxPendedCounts = uxPendedTicks; /* Non-volatile copy. */
    d258:	4e1f      	ldr	r6, [pc, #124]	; (d2d8 <xTaskResumeAll.part.0+0x110>)
    d25a:	6834      	ldr	r4, [r6, #0]
					if( uxPendedCounts > ( UBaseType_t ) 0U )
    d25c:	b144      	cbz	r4, d270 <xTaskResumeAll.part.0+0xa8>
								xYieldPending = pdTRUE;
    d25e:	2501      	movs	r5, #1
							if( xTaskIncrementTick() != pdFALSE )
    d260:	f7ff ff14 	bl	d08c <xTaskIncrementTick>
    d264:	b108      	cbz	r0, d26a <xTaskResumeAll.part.0+0xa2>
								xYieldPending = pdTRUE;
    d266:	f8c9 5000 	str.w	r5, [r9]
						} while( uxPendedCounts > ( UBaseType_t ) 0U );
    d26a:	3c01      	subs	r4, #1
    d26c:	d1f8      	bne.n	d260 <xTaskResumeAll.part.0+0x98>
						uxPendedTicks = 0;
    d26e:	6034      	str	r4, [r6, #0]
				if( xYieldPending != pdFALSE )
    d270:	f8d9 3000 	ldr.w	r3, [r9]
    d274:	b14b      	cbz	r3, d28a <xTaskResumeAll.part.0+0xc2>
					taskYIELD_IF_USING_PREEMPTION();
    d276:	4b19      	ldr	r3, [pc, #100]	; (d2dc <xTaskResumeAll.part.0+0x114>)
    d278:	f04f 5280 	mov.w	r2, #268435456	; 0x10000000
    d27c:	601a      	str	r2, [r3, #0]
    d27e:	f3bf 8f4f 	dsb	sy
    d282:	f3bf 8f6f 	isb	sy
						xAlreadyYielded = pdTRUE;
    d286:	2001      	movs	r0, #1
    d288:	e000      	b.n	d28c <xTaskResumeAll.part.0+0xc4>
BaseType_t xAlreadyYielded = pdFALSE;
    d28a:	2000      	movs	r0, #0
    d28c:	9001      	str	r0, [sp, #4]
	taskEXIT_CRITICAL();
    d28e:	f000 f8b3 	bl	d3f8 <vPortExitCritical>
}
    d292:	9801      	ldr	r0, [sp, #4]
    d294:	b003      	add	sp, #12
    d296:	e8bd 8ff0 	ldmia.w	sp!, {r4, r5, r6, r7, r8, r9, sl, fp, pc}
				while( listLIST_IS_EMPTY( &xPendingReadyList ) == pdFALSE )
    d29a:	682b      	ldr	r3, [r5, #0]
    d29c:	2b00      	cmp	r3, #0
    d29e:	d1af      	bne.n	d200 <xTaskResumeAll.part.0+0x38>
	if( listLIST_IS_EMPTY( pxDelayedTaskList ) != pdFALSE )
    d2a0:	4b0b      	ldr	r3, [pc, #44]	; (d2d0 <xTaskResumeAll.part.0+0x108>)
    d2a2:	681a      	ldr	r2, [r3, #0]
    d2a4:	6812      	ldr	r2, [r2, #0]
    d2a6:	2a00      	cmp	r2, #0
    d2a8:	d1d0      	bne.n	d24c <xTaskResumeAll.part.0+0x84>
		xNextTaskUnblockTime = portMAX_DELAY;
    d2aa:	4b0a      	ldr	r3, [pc, #40]	; (d2d4 <xTaskResumeAll.part.0+0x10c>)
    d2ac:	f04f 32ff 	mov.w	r2, #4294967295	; 0xffffffff
    d2b0:	601a      	str	r2, [r3, #0]
    d2b2:	e7d1      	b.n	d258 <xTaskResumeAll.part.0+0x90>
    d2b4:	f8df 902c 	ldr.w	r9, [pc, #44]	; d2e4 <xTaskResumeAll.part.0+0x11c>
    d2b8:	e7ce      	b.n	d258 <xTaskResumeAll.part.0+0x90>
    d2ba:	bf00      	nop
    d2bc:	1004efbc 	.word	0x1004efbc
    d2c0:	1004efb4 	.word	0x1004efb4
    d2c4:	1004efcc 	.word	0x1004efcc
    d2c8:	1004efc0 	.word	0x1004efc0
    d2cc:	1004ef58 	.word	0x1004ef58
    d2d0:	1004ef5c 	.word	0x1004ef5c
    d2d4:	1004efc4 	.word	0x1004efc4
    d2d8:	1004efb8 	.word	0x1004efb8
    d2dc:	e000ed04 	.word	0xe000ed04
    d2e0:	1004ef64 	.word	0x1004ef64
    d2e4:	1004efe4 	.word	0x1004efe4

0000d2e8 <xTaskResumeAll>:
	configASSERT( uxSchedulerSuspended );
    d2e8:	4b02      	ldr	r3, [pc, #8]	; (d2f4 <xTaskResumeAll+0xc>)
    d2ea:	681b      	ldr	r3, [r3, #0]
    d2ec:	b903      	cbnz	r3, d2f0 <xTaskResumeAll+0x8>
    d2ee:	e7fe      	b.n	d2ee <xTaskResumeAll+0x6>
    d2f0:	f7ff bf6a 	b.w	d1c8 <xTaskResumeAll.part.0>
    d2f4:	1004efbc 	.word	0x1004efbc

0000d2f8 <vTaskSwitchContext>:
	if( uxSchedulerSuspended != ( UBaseType_t ) pdFALSE )
    d2f8:	4b22      	ldr	r3, [pc, #136]	; (d384 <vTaskSwitchContext+0x8c>)
    d2fa:	681b      	ldr	r3, [r3, #0]
    d2fc:	b11b      	cbz	r3, d306 <vTaskSwitchContext+0xe>
		xYieldPending = pdTRUE;
    d2fe:	4b22      	ldr	r3, [pc, #136]	; (d388 <vTaskSwitchContext+0x90>)
    d300:	2201      	movs	r2, #1
    d302:	601a      	str	r2, [r3, #0]
    d304:	4770      	bx	lr
		xYieldPending = pdFALSE;
    d306:	4a20      	ldr	r2, [pc, #128]	; (d388 <vTaskSwitchContext+0x90>)
		taskSELECT_HIGHEST_PRIORITY_TASK(); /*lint !e9079 void * is used as this macro is used with timers and co-routines too.  Alignment is known to be fine as the type of the pointer stored and retrieved is the same. */
    d308:	4920      	ldr	r1, [pc, #128]	; (d38c <vTaskSwitchContext+0x94>)
{
    d30a:	b410      	push	{r4}
		taskSELECT_HIGHEST_PRIORITY_TASK(); /*lint !e9079 void * is used as this macro is used with timers and co-routines too.  Alignment is known to be fine as the type of the pointer stored and retrieved is the same. */
    d30c:	4c20      	ldr	r4, [pc, #128]	; (d390 <vTaskSwitchContext+0x98>)
		xYieldPending = pdFALSE;
    d30e:	6013      	str	r3, [r2, #0]
		taskSELECT_HIGHEST_PRIORITY_TASK(); /*lint !e9079 void * is used as this macro is used with timers and co-routines too.  Alignment is known to be fine as the type of the pointer stored and retrieved is the same. */
    d310:	6822      	ldr	r2, [r4, #0]
    d312:	eb02 0082 	add.w	r0, r2, r2, lsl #2
    d316:	0080      	lsls	r0, r0, #2
    d318:	0093      	lsls	r3, r2, #2
    d31a:	5808      	ldr	r0, [r1, r0]
    d31c:	b9f0      	cbnz	r0, d35c <vTaskSwitchContext+0x64>
    d31e:	b1d2      	cbz	r2, d356 <vTaskSwitchContext+0x5e>
    d320:	1e53      	subs	r3, r2, #1
    d322:	eb03 0083 	add.w	r0, r3, r3, lsl #2
    d326:	0080      	lsls	r0, r0, #2
    d328:	5808      	ldr	r0, [r1, r0]
    d32a:	b9a8      	cbnz	r0, d358 <vTaskSwitchContext+0x60>
    d32c:	b19b      	cbz	r3, d356 <vTaskSwitchContext+0x5e>
    d32e:	1e93      	subs	r3, r2, #2
    d330:	eb03 0083 	add.w	r0, r3, r3, lsl #2
    d334:	0080      	lsls	r0, r0, #2
    d336:	5808      	ldr	r0, [r1, r0]
    d338:	b970      	cbnz	r0, d358 <vTaskSwitchContext+0x60>
    d33a:	b163      	cbz	r3, d356 <vTaskSwitchContext+0x5e>
    d33c:	1ed3      	subs	r3, r2, #3
    d33e:	eb03 0083 	add.w	r0, r3, r3, lsl #2
    d342:	0080      	lsls	r0, r0, #2
    d344:	5808      	ldr	r0, [r1, r0]
    d346:	b938      	cbnz	r0, d358 <vTaskSwitchContext+0x60>
    d348:	b12b      	cbz	r3, d356 <vTaskSwitchContext+0x5e>
    d34a:	1f13      	subs	r3, r2, #4
    d34c:	eb03 0283 	add.w	r2, r3, r3, lsl #2
    d350:	0092      	lsls	r2, r2, #2
    d352:	588a      	ldr	r2, [r1, r2]
    d354:	b902      	cbnz	r2, d358 <vTaskSwitchContext+0x60>
    d356:	e7fe      	b.n	d356 <vTaskSwitchContext+0x5e>
    d358:	461a      	mov	r2, r3
    d35a:	009b      	lsls	r3, r3, #2
    d35c:	4413      	add	r3, r2
    d35e:	eb01 0083 	add.w	r0, r1, r3, lsl #2
    d362:	4603      	mov	r3, r0
    d364:	6841      	ldr	r1, [r0, #4]
    d366:	6849      	ldr	r1, [r1, #4]
    d368:	6041      	str	r1, [r0, #4]
    d36a:	3308      	adds	r3, #8
    d36c:	4299      	cmp	r1, r3
    d36e:	bf08      	it	eq
    d370:	6849      	ldreq	r1, [r1, #4]
    d372:	4b08      	ldr	r3, [pc, #32]	; (d394 <vTaskSwitchContext+0x9c>)
    d374:	bf08      	it	eq
    d376:	6041      	streq	r1, [r0, #4]
    d378:	68c9      	ldr	r1, [r1, #12]
    d37a:	6019      	str	r1, [r3, #0]
    d37c:	6022      	str	r2, [r4, #0]
}
    d37e:	f85d 4b04 	ldr.w	r4, [sp], #4
    d382:	4770      	bx	lr
    d384:	1004efbc 	.word	0x1004efbc
    d388:	1004efe4 	.word	0x1004efe4
    d38c:	1004ef64 	.word	0x1004ef64
    d390:	1004efc0 	.word	0x1004efc0
    d394:	1004ef58 	.word	0x1004ef58
	...

0000d3a0 <SVC_Handler>:
}
/*-----------------------------------------------------------*/

void vPortSVCHandler( void )
{
	__asm volatile (
    d3a0:	4b07      	ldr	r3, [pc, #28]	; (d3c0 <pxCurrentTCBConst2>)
    d3a2:	6819      	ldr	r1, [r3, #0]
    d3a4:	6808      	ldr	r0, [r1, #0]
    d3a6:	e8b0 4ff0 	ldmia.w	r0!, {r4, r5, r6, r7, r8, r9, sl, fp, lr}
    d3aa:	f380 8809 	msr	PSP, r0
    d3ae:	f3bf 8f6f 	isb	sy
    d3b2:	f04f 0000 	mov.w	r0, #0
    d3b6:	f380 8811 	msr	BASEPRI, r0
    d3ba:	4770      	bx	lr
    d3bc:	f3af 8000 	nop.w

0000d3c0 <pxCurrentTCBConst2>:
    d3c0:	1004ef58 	.word	0x1004ef58

0000d3c4 <vPortEnterCritical>:

portFORCE_INLINE static void vPortRaiseBASEPRI( void )
{
uint32_t ulNewBASEPRI;

	__asm volatile
    d3c4:	f04f 0380 	mov.w	r3, #128	; 0x80
    d3c8:	f383 8811 	msr	BASEPRI, r3
    d3cc:	f3bf 8f6f 	isb	sy
    d3d0:	f3bf 8f4f 	dsb	sy
/*-----------------------------------------------------------*/

void vPortEnterCritical( void )
{
	portDISABLE_INTERRUPTS();
	uxCriticalNesting++;
    d3d4:	4a06      	ldr	r2, [pc, #24]	; (d3f0 <vPortEnterCritical+0x2c>)
    d3d6:	6813      	ldr	r3, [r2, #0]
    d3d8:	3301      	adds	r3, #1
	/* This is not the interrupt safe version of the enter critical function so
	assert() if it is being called from an interrupt context.  Only API
	functions that end in "FromISR" can be used in an interrupt.  Only assert if
	the critical nesting count is 1 to protect against recursive calls if the
	assert function also uses a critical section. */
	if( uxCriticalNesting == 1 )
    d3da:	2b01      	cmp	r3, #1
	uxCriticalNesting++;
    d3dc:	6013      	str	r3, [r2, #0]
	if( uxCriticalNesting == 1 )
    d3de:	d000      	beq.n	d3e2 <vPortEnterCritical+0x1e>
	{
		configASSERT( ( portNVIC_INT_CTRL_REG & portVECTACTIVE_MASK ) == 0 );
	}
}
    d3e0:	4770      	bx	lr
		configASSERT( ( portNVIC_INT_CTRL_REG & portVECTACTIVE_MASK ) == 0 );
    d3e2:	4b04      	ldr	r3, [pc, #16]	; (d3f4 <vPortEnterCritical+0x30>)
    d3e4:	681b      	ldr	r3, [r3, #0]
    d3e6:	f013 0fff 	tst.w	r3, #255	; 0xff
    d3ea:	d0f9      	beq.n	d3e0 <vPortEnterCritical+0x1c>
    d3ec:	e7fe      	b.n	d3ec <vPortEnterCritical+0x28>
    d3ee:	bf00      	nop
    d3f0:	1000143c 	.word	0x1000143c
    d3f4:	e000ed04 	.word	0xe000ed04

0000d3f8 <vPortExitCritical>:
/*-----------------------------------------------------------*/

void vPortExitCritical( void )
{
	configASSERT( uxCriticalNesting );
    d3f8:	4a04      	ldr	r2, [pc, #16]	; (d40c <vPortExitCritical+0x14>)
    d3fa:	6813      	ldr	r3, [r2, #0]
    d3fc:	b12b      	cbz	r3, d40a <vPortExitCritical+0x12>
	uxCriticalNesting--;
    d3fe:	3b01      	subs	r3, #1
    d400:	6013      	str	r3, [r2, #0]
	if( uxCriticalNesting == 0 )
    d402:	b90b      	cbnz	r3, d408 <vPortExitCritical+0x10>
}
/*-----------------------------------------------------------*/

portFORCE_INLINE static void vPortSetBASEPRI( uint32_t ulNewMaskValue )
{
	__asm volatile
    d404:	f383 8811 	msr	BASEPRI, r3
	{
		portENABLE_INTERRUPTS();
	}
}
    d408:	4770      	bx	lr
	configASSERT( uxCriticalNesting );
    d40a:	e7fe      	b.n	d40a <vPortExitCritical+0x12>
    d40c:	1000143c 	.word	0x1000143c

0000d410 <PendSV_Handler>:

void xPortPendSVHandler( void )
{
	/* This is a naked function. */

	__asm volatile
    d410:	f3ef 8009 	mrs	r0, PSP
    d414:	f3bf 8f6f 	isb	sy
    d418:	4b15      	ldr	r3, [pc, #84]	; (d470 <pxCurrentTCBConst>)
    d41a:	681a      	ldr	r2, [r3, #0]
    d41c:	f01e 0f10 	tst.w	lr, #16
    d420:	bf08      	it	eq
    d422:	ed20 8a10 	vstmdbeq	r0!, {s16-s31}
    d426:	e920 4ff0 	stmdb	r0!, {r4, r5, r6, r7, r8, r9, sl, fp, lr}
    d42a:	6010      	str	r0, [r2, #0]
    d42c:	e92d 0009 	stmdb	sp!, {r0, r3}
    d430:	f04f 0080 	mov.w	r0, #128	; 0x80
    d434:	f380 8811 	msr	BASEPRI, r0
    d438:	f3bf 8f4f 	dsb	sy
    d43c:	f3bf 8f6f 	isb	sy
    d440:	f7ff ff5a 	bl	d2f8 <vTaskSwitchContext>
    d444:	f04f 0000 	mov.w	r0, #0
    d448:	f380 8811 	msr	BASEPRI, r0
    d44c:	bc09      	pop	{r0, r3}
    d44e:	6819      	ldr	r1, [r3, #0]
    d450:	6808      	ldr	r0, [r1, #0]
    d452:	e8b0 4ff0 	ldmia.w	r0!, {r4, r5, r6, r7, r8, r9, sl, fp, lr}
    d456:	f01e 0f10 	tst.w	lr, #16
    d45a:	bf08      	it	eq
    d45c:	ecb0 8a10 	vldmiaeq	r0!, {s16-s31}
    d460:	f380 8809 	msr	PSP, r0
    d464:	f3bf 8f6f 	isb	sy
    d468:	4770      	bx	lr
    d46a:	bf00      	nop
    d46c:	f3af 8000 	nop.w

0000d470 <pxCurrentTCBConst>:
    d470:	1004ef58 	.word	0x1004ef58

0000d474 <SysTick_Handler>:
	);
}
/*-----------------------------------------------------------*/

void xPortSysTickHandler( void )
{
    d474:	b508      	push	{r3, lr}
	__asm volatile
    d476:	f04f 0380 	mov.w	r3, #128	; 0x80
    d47a:	f383 8811 	msr	BASEPRI, r3
    d47e:	f3bf 8f6f 	isb	sy
    d482:	f3bf 8f4f 	dsb	sy
	save and then restore the interrupt mask value as its value is already
	known. */
	portDISABLE_INTERRUPTS();
	{
		/* Increment the RTOS tick. */
		if( xTaskIncrementTick() != pdFALSE )
    d486:	f7ff fe01 	bl	d08c <xTaskIncrementTick>
    d48a:	b118      	cbz	r0, d494 <SysTick_Handler+0x20>
		{
			/* A context switch is required.  Context switching is performed in
			the PendSV interrupt.  Pend the PendSV interrupt. */
			portNVIC_INT_CTRL_REG = portNVIC_PENDSVSET_BIT;
    d48c:	4b03      	ldr	r3, [pc, #12]	; (d49c <SysTick_Handler+0x28>)
    d48e:	f04f 5280 	mov.w	r2, #268435456	; 0x10000000
    d492:	601a      	str	r2, [r3, #0]
	__asm volatile
    d494:	2300      	movs	r3, #0
    d496:	f383 8811 	msr	BASEPRI, r3
		}
	}
	portENABLE_INTERRUPTS();
}
    d49a:	bd08      	pop	{r3, pc}
    d49c:	e000ed04 	.word	0xe000ed04

0000d4a0 <xPortStimerTickHandler>:
//
//
//*****************************************************************************
void
xPortStimerTickHandler(uint32_t delta)
{
    d4a0:	b570      	push	{r4, r5, r6, lr}

    curSTimer = am_hal_stimer_counter_get();
    //
    // Configure the STIMER->COMPARE_0
    //
    am_hal_stimer_compare_delta_set(0, (ulTimerCountsForOneTick-delta));
    d4a2:	4e1c      	ldr	r6, [pc, #112]	; (d514 <xPortStimerTickHandler+0x74>)
{
    d4a4:	4604      	mov	r4, r0
    curSTimer = am_hal_stimer_counter_get();
    d4a6:	f001 f84f 	bl	e548 <am_hal_stimer_counter_get>
    am_hal_stimer_compare_delta_set(0, (ulTimerCountsForOneTick-delta));
    d4aa:	6831      	ldr	r1, [r6, #0]
    curSTimer = am_hal_stimer_counter_get();
    d4ac:	4605      	mov	r5, r0
    am_hal_stimer_compare_delta_set(0, (ulTimerCountsForOneTick-delta));
    d4ae:	1b09      	subs	r1, r1, r4
    d4b0:	2000      	movs	r0, #0
    d4b2:	f001 f859 	bl	e568 <am_hal_stimer_compare_delta_set>
#ifdef AM_FREERTOS_STIMER_BACKUP
    am_hal_stimer_compare_delta_set(1, (ulTimerCountsForOneTick-delta+1));
    d4b6:	6831      	ldr	r1, [r6, #0]
    d4b8:	3101      	adds	r1, #1
    d4ba:	1b09      	subs	r1, r1, r4
    d4bc:	2001      	movs	r0, #1
    d4be:	f001 f853 	bl	e568 <am_hal_stimer_compare_delta_set>
#endif

    timerCounts = curSTimer - g_lastSTimerVal;
    d4c2:	4915      	ldr	r1, [pc, #84]	; (d518 <xPortStimerTickHandler+0x78>)
    numTicksElapsed = timerCounts/ulTimerCountsForOneTick;
    d4c4:	6832      	ldr	r2, [r6, #0]
    timerCounts = curSTimer - g_lastSTimerVal;
    d4c6:	680b      	ldr	r3, [r1, #0]
    d4c8:	1aeb      	subs	r3, r5, r3
    numTicksElapsed = timerCounts/ulTimerCountsForOneTick;
    d4ca:	fbb3 f4f2 	udiv	r4, r3, r2
    remainder = timerCounts % ulTimerCountsForOneTick;
    d4ce:	fb02 3014 	mls	r0, r2, r4, r3
    g_lastSTimerVal = curSTimer - remainder;
    d4d2:	1a2d      	subs	r5, r5, r0
    d4d4:	600d      	str	r5, [r1, #0]
	__asm volatile
    d4d6:	f3ef 8111 	mrs	r1, BASEPRI
    d4da:	f04f 0080 	mov.w	r0, #128	; 0x80
    d4de:	f380 8811 	msr	BASEPRI, r0
    d4e2:	f3bf 8f6f 	isb	sy
    d4e6:	f3bf 8f4f 	dsb	sy
        //
        // Increment RTOS tick
        // Allowing for need to increment the tick more than one... to avoid accumulation of
        // error in case of interrupt latencies
        //
        while (numTicksElapsed--)
    d4ea:	429a      	cmp	r2, r3
    d4ec:	d80e      	bhi.n	d50c <xPortStimerTickHandler+0x6c>
    d4ee:	3c01      	subs	r4, #1
    BaseType_t ctxtSwitchReqd = pdFALSE;
    d4f0:	2500      	movs	r5, #0
        {
            ctxtSwitchReqd = (( xTaskIncrementTick() != pdFALSE ) ? pdTRUE : ctxtSwitchReqd);
    d4f2:	f7ff fdcb 	bl	d08c <xTaskIncrementTick>
        while (numTicksElapsed--)
    d4f6:	3c01      	subs	r4, #1
            ctxtSwitchReqd = (( xTaskIncrementTick() != pdFALSE ) ? pdTRUE : ctxtSwitchReqd);
    d4f8:	2800      	cmp	r0, #0
    d4fa:	bf18      	it	ne
    d4fc:	2501      	movne	r5, #1
        while (numTicksElapsed--)
    d4fe:	1c63      	adds	r3, r4, #1
    d500:	d1f7      	bne.n	d4f2 <xPortStimerTickHandler+0x52>
        }
        if ( ctxtSwitchReqd != pdFALSE )
    d502:	b11d      	cbz	r5, d50c <xPortStimerTickHandler+0x6c>
            //
            // A context switch is required.  Context switching is
            // performed in the PendSV interrupt. Pend the PendSV
            // interrupt.
            //
            portNVIC_INT_CTRL_REG = portNVIC_PENDSVSET_BIT;
    d504:	4b05      	ldr	r3, [pc, #20]	; (d51c <xPortStimerTickHandler+0x7c>)
    d506:	f04f 5280 	mov.w	r2, #268435456	; 0x10000000
    d50a:	601a      	str	r2, [r3, #0]
	__asm volatile
    d50c:	2300      	movs	r3, #0
    d50e:	f383 8811 	msr	BASEPRI, r3
        }
    }
    portCLEAR_INTERRUPT_MASK_FROM_ISR(0);
}
    d512:	bd70      	pop	{r4, r5, r6, pc}
    d514:	1004eff0 	.word	0x1004eff0
    d518:	1004efec 	.word	0x1004efec
    d51c:	e000ed04 	.word	0xe000ed04

0000d520 <am_stimer_cmpr0_isr>:
// Interrupt handler for the STIMER module Compare 0.
//
//*****************************************************************************
void
am_stimer_cmpr0_isr(void)
{
    d520:	b508      	push	{r3, lr}

    //
    // Check the timer interrupt status.
    //
    uint32_t ui32Status = am_hal_stimer_int_status_get(false);
    d522:	2000      	movs	r0, #0
    d524:	f001 f882 	bl	e62c <am_hal_stimer_int_status_get>
    if (ui32Status & AM_HAL_STIMER_INT_COMPAREA)
    d528:	07c3      	lsls	r3, r0, #31
    d52a:	d400      	bmi.n	d52e <am_stimer_cmpr0_isr+0xe>
        //
        // Run handlers for the various possible timer events.
        //
        xPortStimerTickHandler(0);
    }
}
    d52c:	bd08      	pop	{r3, pc}
        am_hal_stimer_int_clear(AM_HAL_STIMER_INT_COMPAREA);
    d52e:	2001      	movs	r0, #1
    d530:	f001 f876 	bl	e620 <am_hal_stimer_int_clear>
}
    d534:	e8bd 4008 	ldmia.w	sp!, {r3, lr}
        xPortStimerTickHandler(0);
    d538:	2000      	movs	r0, #0
    d53a:	f7ff bfb1 	b.w	d4a0 <xPortStimerTickHandler>
    d53e:	bf00      	nop

0000d540 <am_stimer_cmpr1_isr>:
// Interrupt handler for the STIMER module Compare 0.
//
//*****************************************************************************
void
am_stimer_cmpr1_isr(void)
{
    d540:	b508      	push	{r3, lr}

    //
    // Check the timer interrupt status.
    //
    uint32_t ui32Status = am_hal_stimer_int_status_get(false);
    d542:	2000      	movs	r0, #0
    d544:	f001 f872 	bl	e62c <am_hal_stimer_int_status_get>
    if (ui32Status & AM_HAL_STIMER_INT_COMPAREB)
    d548:	0783      	lsls	r3, r0, #30
    d54a:	d400      	bmi.n	d54e <am_stimer_cmpr1_isr+0xe>
        //
        // Run handlers for the various possible timer events.
        //
        xPortStimerTickHandler(1);
    }
}
    d54c:	bd08      	pop	{r3, pc}
        am_hal_stimer_int_clear(AM_HAL_STIMER_INT_COMPAREB);
    d54e:	2002      	movs	r0, #2
    d550:	f001 f866 	bl	e620 <am_hal_stimer_int_clear>
        gNumCmpB++;
    d554:	4a04      	ldr	r2, [pc, #16]	; (d568 <am_stimer_cmpr1_isr+0x28>)
    d556:	6813      	ldr	r3, [r2, #0]
        xPortStimerTickHandler(1);
    d558:	2001      	movs	r0, #1
        gNumCmpB++;
    d55a:	4403      	add	r3, r0
    d55c:	6013      	str	r3, [r2, #0]
}
    d55e:	e8bd 4008 	ldmia.w	sp!, {r3, lr}
        xPortStimerTickHandler(1);
    d562:	f7ff bf9d 	b.w	d4a0 <xPortStimerTickHandler>
    d566:	bf00      	nop
    d568:	1004efe8 	.word	0x1004efe8

0000d56c <NMI_Handler>:
NMI_Handler(void)
{
    //
    // Go into an infinite loop.
    //
    while(1)
    d56c:	e7fe      	b.n	d56c <NMI_Handler>
    d56e:	bf00      	nop

0000d570 <BusFault_Handler>:
HardFault_Handler(void)
{
    //
    // Go into an infinite loop.
    //
    while(1)
    d570:	e7fe      	b.n	d570 <BusFault_Handler>
    d572:	bf00      	nop

0000d574 <DebugMon_Handler>:
am_default_isr(void)
{
    //
    // Go into an infinite loop.
    //
    while(1)
    d574:	e7fe      	b.n	d574 <DebugMon_Handler>
    d576:	bf00      	nop

0000d578 <Reset_Handler>:
    __asm("    ldr    r0, =0xE000ED08\n"
    d578:	4811      	ldr	r0, [pc, #68]	; (d5c0 <zero_loop+0x12>)
    d57a:	4912      	ldr	r1, [pc, #72]	; (d5c4 <zero_loop+0x16>)
    d57c:	6001      	str	r1, [r0, #0]
    __asm("    ldr    sp, [r1]");
    d57e:	f8d1 d000 	ldr.w	sp, [r1]
    __asm("ldr  r0, =0xE000ED88\n"
    d582:	4811      	ldr	r0, [pc, #68]	; (d5c8 <zero_loop+0x1a>)
    d584:	6801      	ldr	r1, [r0, #0]
    d586:	f441 0170 	orr.w	r1, r1, #15728640	; 0xf00000
    d58a:	6001      	str	r1, [r0, #0]
    d58c:	f3bf 8f4f 	dsb	sy
    d590:	f3bf 8f6f 	isb	sy
    __asm("    ldr     r0, =_init_data\n"
    d594:	480d      	ldr	r0, [pc, #52]	; (d5cc <zero_loop+0x1e>)
    d596:	490e      	ldr	r1, [pc, #56]	; (d5d0 <zero_loop+0x22>)
    d598:	4a0e      	ldr	r2, [pc, #56]	; (d5d4 <zero_loop+0x26>)

0000d59a <copy_loop>:
    d59a:	f850 3b04 	ldr.w	r3, [r0], #4
    d59e:	f841 3b04 	str.w	r3, [r1], #4
    d5a2:	4291      	cmp	r1, r2
    d5a4:	dbf9      	blt.n	d59a <copy_loop>
    __asm("    ldr     r0, =_sbss\n"
    d5a6:	480c      	ldr	r0, [pc, #48]	; (d5d8 <zero_loop+0x2a>)
    d5a8:	490c      	ldr	r1, [pc, #48]	; (d5dc <zero_loop+0x2e>)
    d5aa:	f04f 0200 	mov.w	r2, #0

0000d5ae <zero_loop>:
    d5ae:	4288      	cmp	r0, r1
    d5b0:	bfb8      	it	lt
    d5b2:	f840 2b04 	strlt.w	r2, [r0], #4
    d5b6:	dbfa      	blt.n	d5ae <zero_loop>
    main();
    d5b8:	f7ff fbd4 	bl	cd64 <main>
    __asm("    bkpt     ");
    d5bc:	be00      	bkpt	0x0000
}
    d5be:	0000      	.short	0x0000
    d5c0:	e000ed08 	.word	0xe000ed08
    d5c4:	0000c000 	.word	0x0000c000
    d5c8:	e000ed88 	.word	0xe000ed88
    d5cc:	00016aac 	.word	0x00016aac
    d5d0:	10001000 	.word	0x10001000
    d5d4:	10003f44 	.word	0x10003f44
    d5d8:	10003f44 	.word	0x10003f44
    d5dc:	1004f010 	.word	0x1004f010

0000d5e0 <perform_single_inference>:
  vPortFree((void *)distances);

}

knnState_t perform_single_inference(void)
{
    d5e0:	e92d 4ff0 	stmdb	sp!, {r4, r5, r6, r7, r8, r9, sl, fp, lr}
  float *distances = (float *) pvPortMalloc(sizeof(float) * TRAINING_DATASET_SIZE);
    d5e4:	f640 20b4 	movw	r0, #2740	; 0xab4
{
    d5e8:	b085      	sub	sp, #20
  float *distances = (float *) pvPortMalloc(sizeof(float) * TRAINING_DATASET_SIZE);
    d5ea:	f7ff fca5 	bl	cf38 <pvPortMalloc>
    d5ee:	f8df 8158 	ldr.w	r8, [pc, #344]	; d748 <perform_single_inference+0x168>
    d5f2:	4f50      	ldr	r7, [pc, #320]	; (d734 <perform_single_inference+0x154>)
    d5f4:	4d50      	ldr	r5, [pc, #320]	; (d738 <perform_single_inference+0x158>)
    d5f6:	4681      	mov	r9, r0
    d5f8:	4606      	mov	r6, r0
    d5fa:	4644      	mov	r4, r8
  float sub_field_1 = (sample_1.field_1 - sample_2.field_1)*
    d5fc:	edd4 7a00 	vldr	s15, [r4]
    d600:	ed95 5a00 	vldr	s10, [r5]
  float sub_field_2 = (sample_1.field_2 - sample_2.field_2)*
    d604:	edd4 6a01 	vldr	s13, [r4, #4]
    d608:	edd5 5a01 	vldr	s11, [r5, #4]
  float sub_field_3 = (sample_1.field_3 - sample_2.field_3)*
    d60c:	ed94 7a02 	vldr	s14, [r4, #8]
    d610:	ed95 6a02 	vldr	s12, [r5, #8]
  float sub_field_1 = (sample_1.field_1 - sample_2.field_1)*
    d614:	ee77 7ac5 	vsub.f32	s15, s15, s10
  float sub_field_2 = (sample_1.field_2 - sample_2.field_2)*
    d618:	ee76 6ae5 	vsub.f32	s13, s13, s11
  float sub_field_3 = (sample_1.field_3 - sample_2.field_3)*
    d61c:	ee37 7a46 	vsub.f32	s14, s14, s12
  float sub_field_2 = (sample_1.field_2 - sample_2.field_2)*
    d620:	ee66 6aa6 	vmul.f32	s13, s13, s13
  float sub_field_1 = (sample_1.field_1 - sample_2.field_1)*
    d624:	ee67 7aa7 	vmul.f32	s15, s15, s15
  float sub_field_3 = (sample_1.field_3 - sample_2.field_3)*
    d628:	ee27 7a07 	vmul.f32	s14, s14, s14
  return (sqrt(sub_field_1 + sub_field_2 + sub_field_3));
    d62c:	ee77 7aa6 	vadd.f32	s15, s15, s13
    d630:	3410      	adds	r4, #16
    d632:	ee77 7a87 	vadd.f32	s15, s15, s14
    d636:	ee17 0a90 	vmov	r0, s15
    d63a:	f7fe ffd1 	bl	c5e0 <__aeabi_f2d>
    d63e:	ec41 0b10 	vmov	d0, r0, r1
    d642:	f7fe fd5d 	bl	c100 <sqrt>
    d646:	ec51 0b10 	vmov	r0, r1, d0
    d64a:	f7ff fad1 	bl	cbf0 <__aeabi_d2f>
  for (int i = 0; i < TRAINING_DATASET_SIZE; i++) {
    d64e:	42a7      	cmp	r7, r4
  return (sqrt(sub_field_1 + sub_field_2 + sub_field_3));
    d650:	f846 0b04 	str.w	r0, [r6], #4
  for (int i = 0; i < TRAINING_DATASET_SIZE; i++) {
    d654:	d1d2      	bne.n	d5fc <perform_single_inference+0x1c>
  for (int i = 0; i < n_closest; i++) {
    d656:	f04f 0e00 	mov.w	lr, #0
    d65a:	f609 2bac 	addw	fp, r9, #2732	; 0xaac
        temp_training = knn_training_dataset[j-1];
    d65e:	466f      	mov	r7, sp
    for (int j = TRAINING_DATASET_SIZE - 1; j > i ; j--) {
    d660:	4c36      	ldr	r4, [pc, #216]	; (d73c <perform_single_inference+0x15c>)
    d662:	465e      	mov	r6, fp
  float *distances = (float *) pvPortMalloc(sizeof(float) * TRAINING_DATASET_SIZE);
    d664:	f240 2cab 	movw	ip, #683	; 0x2ab
      if (distances[j-1] > distances[j])  {
    d668:	edd6 7a00 	vldr	s15, [r6]
    d66c:	ed96 7a01 	vldr	s14, [r6, #4]
    d670:	eef4 7ac7 	vcmpe.f32	s15, s14
    d674:	eef1 fa10 	vmrs	APSR_nzcv, fpscr
        knn_training_dataset[j-1] = knn_training_dataset[j];
    d678:	f104 0510 	add.w	r5, r4, #16
    d67c:	4663      	mov	r3, ip
        temp_training = knn_training_dataset[j-1];
    d67e:	46e2      	mov	sl, ip
      if (distances[j-1] > distances[j])  {
    d680:	dc3a      	bgt.n	d6f8 <perform_single_inference+0x118>
    for (int j = TRAINING_DATASET_SIZE - 1; j > i ; j--) {
    d682:	459e      	cmp	lr, r3
    d684:	f1a6 0604 	sub.w	r6, r6, #4
    d688:	f10c 3cff 	add.w	ip, ip, #4294967295	; 0xffffffff
    d68c:	f1a4 0410 	sub.w	r4, r4, #16
    d690:	dbea      	blt.n	d668 <perform_single_inference+0x88>
  for (int i = 0; i < n_closest; i++) {
    d692:	f10e 0e01 	add.w	lr, lr, #1
    d696:	f1be 0f1b 	cmp.w	lr, #27
    d69a:	d1e1      	bne.n	d660 <perform_single_inference+0x80>
  vPortFree((void *)distances);
    d69c:	4648      	mov	r0, r9
    d69e:	f7ff fca9 	bl	cff4 <vPortFree>
  float percentage_count_fear = 0;
  float threshold_cost_percent = (((float) COST_MISSCLASIFICATION_NOFEAR /
                                   (float) COST_MISSCLASIFICATION_FEAR) / 2);
  uint32_t i;
  uint32_t count_fear=0, count_no_fear=0;
    d6a2:	2200      	movs	r2, #0
    d6a4:	4826      	ldr	r0, [pc, #152]	; (d740 <perform_single_inference+0x160>)
    d6a6:	4611      	mov	r1, r2
    d6a8:	e005      	b.n	d6b6 <perform_single_inference+0xd6>
    d6aa:	f108 0810 	add.w	r8, r8, #16
  uint32_t NEIGHBOURHOOD_SIZE_VAR = (ceil(sqrt(TRAINING_DATASET_SIZE)));

  // Sort the NEIGHBOURHOOD_SIZE_VAR minimum distances from the test point
  sort_n_Euclidean_distances(NEIGHBOURHOOD_SIZE_VAR);

  for (i = 0; i < NEIGHBOURHOOD_SIZE_VAR; i++)
    d6ae:	4540      	cmp	r0, r8
  {
    if(knn_training_dataset[i].label == NO_FEAR)
      count_no_fear ++;
    d6b0:	f102 0201 	add.w	r2, r2, #1
  for (i = 0; i < NEIGHBOURHOOD_SIZE_VAR; i++)
    d6b4:	d009      	beq.n	d6ca <perform_single_inference+0xea>
    if(knn_training_dataset[i].label == NO_FEAR)
    d6b6:	f898 300c 	ldrb.w	r3, [r8, #12]
    d6ba:	2b00      	cmp	r3, #0
    d6bc:	d0f5      	beq.n	d6aa <perform_single_inference+0xca>
    d6be:	f108 0810 	add.w	r8, r8, #16
  for (i = 0; i < NEIGHBOURHOOD_SIZE_VAR; i++)
    d6c2:	4540      	cmp	r0, r8
    else
      count_fear ++;
    d6c4:	f101 0101 	add.w	r1, r1, #1
  for (i = 0; i < NEIGHBOURHOOD_SIZE_VAR; i++)
    d6c8:	d1f5      	bne.n	d6b6 <perform_single_inference+0xd6>
  #ifdef PRINTING_DETAILS
  am_util_stdio_printf("kNN Inference -> neighbors: Fear=%d, Nofear=%d\n", count_fear, count_no_fear);
  #endif

  /*... 50%*/
  percentage_count_fear = (float)count_fear / (float)(count_fear+count_no_fear);
    d6ca:	440a      	add	r2, r1
    d6cc:	ee07 2a90 	vmov	s15, r2
    d6d0:	ee07 1a10 	vmov	s14, r1
    d6d4:	eef8 7a67 	vcvt.f32.u32	s15, s15
    d6d8:	eeb8 7a47 	vcvt.f32.u32	s14, s14

  /*...*/
  if(percentage_count_fear > threshold_cost_percent)
    d6dc:	eddf 6a19 	vldr	s13, [pc, #100]	; d744 <perform_single_inference+0x164>
  percentage_count_fear = (float)count_fear / (float)(count_fear+count_no_fear);
    d6e0:	ee87 6a27 	vdiv.f32	s12, s14, s15
  if(percentage_count_fear > threshold_cost_percent)
    d6e4:	eeb4 6ae6 	vcmpe.f32	s12, s13
    d6e8:	eef1 fa10 	vmrs	APSR_nzcv, fpscr
    return FEAR;
  else 
    return NO_FEAR;
}
    d6ec:	bfcc      	ite	gt
    d6ee:	2001      	movgt	r0, #1
    d6f0:	2000      	movle	r0, #0
    d6f2:	b005      	add	sp, #20
    d6f4:	e8bd 8ff0 	ldmia.w	sp!, {r4, r5, r6, r7, r8, r9, sl, fp, pc}
        distances[j-1] = distances[j];
    d6f8:	ed86 7a00 	vstr	s14, [r6]
        distances[j] = temp_dist;
    d6fc:	edc6 7a01 	vstr	s15, [r6, #4]
        temp_training = knn_training_dataset[j-1];
    d700:	e894 000f 	ldmia.w	r4, {r0, r1, r2, r3}
    d704:	e887 000f 	stmia.w	r7, {r0, r1, r2, r3}
        knn_training_dataset[j-1] = knn_training_dataset[j];
    d708:	e895 000f 	ldmia.w	r5, {r0, r1, r2, r3}
    d70c:	e884 000f 	stmia.w	r4, {r0, r1, r2, r3}
        knn_training_dataset[j] = temp_training;
    d710:	e897 000f 	ldmia.w	r7, {r0, r1, r2, r3}
    for (int j = TRAINING_DATASET_SIZE - 1; j > i ; j--) {
    d714:	45f2      	cmp	sl, lr
        knn_training_dataset[j] = temp_training;
    d716:	e885 000f 	stmia.w	r5, {r0, r1, r2, r3}
    for (int j = TRAINING_DATASET_SIZE - 1; j > i ; j--) {
    d71a:	f1a6 0604 	sub.w	r6, r6, #4
    d71e:	f10c 3cff 	add.w	ip, ip, #4294967295	; 0xffffffff
    d722:	f1a4 0410 	sub.w	r4, r4, #16
    d726:	dc9f      	bgt.n	d668 <perform_single_inference+0x88>
  for (int i = 0; i < n_closest; i++) {
    d728:	f10e 0e01 	add.w	lr, lr, #1
    d72c:	f1be 0f1b 	cmp.w	lr, #27
    d730:	d196      	bne.n	d660 <perform_single_inference+0x80>
    d732:	e7b3      	b.n	d69c <perform_single_inference+0xbc>
    d734:	10003f10 	.word	0x10003f10
    d738:	1004f000 	.word	0x1004f000
    d73c:	10003ef0 	.word	0x10003ef0
    d740:	100015f0 	.word	0x100015f0
    d744:	3ed55555 	.word	0x3ed55555
    d748:	10001440 	.word	0x10001440

0000d74c <runKNN>:
  return(perform_single_inference());
    d74c:	f7ff bf48 	b.w	d5e0 <perform_single_inference>

0000d750 <preprocess_input>:
}


// Return true if the averages are withing the expected ranges for normalization
// Return false if the average is exceeding the limits
bool preprocess_input(const uint32_t *bvp, const int16_t *gsr, const float *temp)   {
    d750:	b430      	push	{r4, r5}
    d752:	1f03      	subs	r3, r0, #4
    d754:	f600 457c 	addw	r5, r0, #3196	; 0xc7c
    int32_t sum = 0;
    d758:	2000      	movs	r0, #0
        sum += data[i];
    d75a:	f853 4f04 	ldr.w	r4, [r3, #4]!
    for (int i=0; i<length; i++)   {
    d75e:	429d      	cmp	r5, r3
        sum += data[i];
    d760:	4420      	add	r0, r4
    for (int i=0; i<length; i++)   {
    d762:	d1fa      	bne.n	d75a <preprocess_input+0xa>
    return (float) (sum) /  (float) length;
    d764:	ee07 0a90 	vmov	s15, r0
    d768:	ed9f 7a3a 	vldr	s14, [pc, #232]	; d854 <preprocess_input+0x104>
    d76c:	eef8 7ae7 	vcvt.f32.s32	s15, s15
    d770:	1e8b      	subs	r3, r1, #2
    d772:	eec7 6a87 	vdiv.f32	s13, s15, s14
    for (int i=0; i<length; i++)   {
    d776:	f101 0426 	add.w	r4, r1, #38	; 0x26
    int32_t sum = 0;
    d77a:	2100      	movs	r1, #0
        sum += (int32_t) data[i];
    d77c:	f933 0f02 	ldrsh.w	r0, [r3, #2]!
    for (int i=0; i<length; i++)   {
    d780:	429c      	cmp	r4, r3
        sum += (int32_t) data[i];
    d782:	4401      	add	r1, r0
    for (int i=0; i<length; i++)   {
    d784:	d1fa      	bne.n	d77c <preprocess_input+0x2c>
        sum += data[i];
    d786:	edd2 7a00 	vldr	s15, [r2]
    d78a:	eddf 4a33 	vldr	s9, [pc, #204]	; d858 <preprocess_input+0x108>
    d78e:	ed92 5a01 	vldr	s10, [r2, #4]
    d792:	edd2 5a02 	vldr	s11, [r2, #8]
  if(bvp > (float)MAX_BVP || bvp < (float)MIN_BVP)
    d796:	ed9f 6a31 	vldr	s12, [pc, #196]	; d85c <preprocess_input+0x10c>
        sum += data[i];
    d79a:	ed92 7a03 	vldr	s14, [r2, #12]
    d79e:	ee77 7aa4 	vadd.f32	s15, s15, s9
  if(bvp > (float)MAX_BVP || bvp < (float)MIN_BVP)
    d7a2:	eef4 6ac6 	vcmpe.f32	s13, s12
        sum += data[i];
    d7a6:	ee77 7a85 	vadd.f32	s15, s15, s10
  if(bvp > (float)MAX_BVP || bvp < (float)MIN_BVP)
    d7aa:	eef1 fa10 	vmrs	APSR_nzcv, fpscr
        sum += data[i];
    d7ae:	ee77 7aa5 	vadd.f32	s15, s15, s11
    d7b2:	ee37 7a87 	vadd.f32	s14, s15, s14
  if(bvp > (float)MAX_BVP || bvp < (float)MIN_BVP)
    d7b6:	dc49      	bgt.n	d84c <preprocess_input+0xfc>
    d7b8:	eddf 7a29 	vldr	s15, [pc, #164]	; d860 <preprocess_input+0x110>
    d7bc:	eef4 6ae7 	vcmpe.f32	s13, s15
    d7c0:	eef1 fa10 	vmrs	APSR_nzcv, fpscr
    d7c4:	d442      	bmi.n	d84c <preprocess_input+0xfc>
  knn_testing_dataset.field_1 = (bvp - (float)MIN_BVP)/((float)(MAX_BVP-MIN_BVP));
    d7c6:	ee76 6ae7 	vsub.f32	s13, s13, s15
    return (float) (sum) / (float) length;
    d7ca:	ee07 1a90 	vmov	s15, r1
  knn_testing_dataset.field_1 = (bvp - (float)MIN_BVP)/((float)(MAX_BVP-MIN_BVP));
    d7ce:	eddf 4a25 	vldr	s9, [pc, #148]	; d864 <preprocess_input+0x114>
  if(gsr > (float)MAX_GSR || gsr < (float)MIN_GSR)
    d7d2:	ed9f 6a25 	vldr	s12, [pc, #148]	; d868 <preprocess_input+0x118>
  knn_testing_dataset.field_1 = (bvp - (float)MIN_BVP)/((float)(MAX_BVP-MIN_BVP));
    d7d6:	4b25      	ldr	r3, [pc, #148]	; (d86c <preprocess_input+0x11c>)
    return (float) (sum) / (float) length;
    d7d8:	eef8 7ae7 	vcvt.f32.s32	s15, s15
    d7dc:	eeb3 5a04 	vmov.f32	s10, #52	; 0x41a00000  20.0
  knn_testing_dataset.field_1 = (bvp - (float)MIN_BVP)/((float)(MAX_BVP-MIN_BVP));
    d7e0:	eec6 5aa4 	vdiv.f32	s11, s13, s9
    return (float) (sum) / (float) length;
    d7e4:	eec7 6a85 	vdiv.f32	s13, s15, s10
  knn_testing_dataset.field_1 = (bvp - (float)MIN_BVP)/((float)(MAX_BVP-MIN_BVP));
    d7e8:	edc3 5a00 	vstr	s11, [r3]
  if(gsr > (float)MAX_GSR || gsr < (float)MIN_GSR)
    d7ec:	eef4 6ac6 	vcmpe.f32	s13, s12
    d7f0:	eef1 fa10 	vmrs	APSR_nzcv, fpscr
    d7f4:	dc2a      	bgt.n	d84c <preprocess_input+0xfc>
    d7f6:	eddf 7a1e 	vldr	s15, [pc, #120]	; d870 <preprocess_input+0x120>
    d7fa:	eef4 6ae7 	vcmpe.f32	s13, s15
    d7fe:	eef1 fa10 	vmrs	APSR_nzcv, fpscr
    d802:	d423      	bmi.n	d84c <preprocess_input+0xfc>
  knn_testing_dataset.field_2 = (gsr - (float)MIN_GSR)/((float)(MAX_GSR-MIN_GSR));
    d804:	ee76 6ae7 	vsub.f32	s13, s13, s15
    d808:	eddf 7a1a 	vldr	s15, [pc, #104]	; d874 <preprocess_input+0x124>
  if(temp > (float)MAX_TEMP || temp < (float)MIN_TEMP)
    d80c:	ed9f 6a1a 	vldr	s12, [pc, #104]	; d878 <preprocess_input+0x128>
  knn_testing_dataset.field_2 = (gsr - (float)MIN_GSR)/((float)(MAX_GSR-MIN_GSR));
    d810:	eec6 5aa7 	vdiv.f32	s11, s13, s15
    return sum / (float) length;
    d814:	eef5 7a00 	vmov.f32	s15, #80	; 0x3e800000  0.250
    d818:	ee67 7a27 	vmul.f32	s15, s14, s15
  knn_testing_dataset.field_2 = (gsr - (float)MIN_GSR)/((float)(MAX_GSR-MIN_GSR));
    d81c:	edc3 5a01 	vstr	s11, [r3, #4]
  if(temp > (float)MAX_TEMP || temp < (float)MIN_TEMP)
    d820:	eef4 7ac6 	vcmpe.f32	s15, s12
    d824:	eef1 fa10 	vmrs	APSR_nzcv, fpscr
    d828:	dc10      	bgt.n	d84c <preprocess_input+0xfc>
    d82a:	ed9f 7a14 	vldr	s14, [pc, #80]	; d87c <preprocess_input+0x12c>
    d82e:	eef4 7ac7 	vcmpe.f32	s15, s14
    d832:	eef1 fa10 	vmrs	APSR_nzcv, fpscr
    d836:	d409      	bmi.n	d84c <preprocess_input+0xfc>
  knn_testing_dataset.field_3 = (temp - (float)MIN_TEMP)/((float)(MAX_TEMP-MIN_TEMP));
    d838:	ee77 7ac7 	vsub.f32	s15, s15, s14
    d83c:	eddf 6a10 	vldr	s13, [pc, #64]	; d880 <preprocess_input+0x130>
    d840:	ee87 7aa6 	vdiv.f32	s14, s15, s13
  return true;
    d844:	2001      	movs	r0, #1
  knn_testing_dataset.field_3 = (temp - (float)MIN_TEMP)/((float)(MAX_TEMP-MIN_TEMP));
    d846:	ed83 7a02 	vstr	s14, [r3, #8]
  return true;
    d84a:	e000      	b.n	d84e <preprocess_input+0xfe>
    return false;
    d84c:	2000      	movs	r0, #0

    // Step 2: normalize data to (0, 1)
    bool flag = normalize(mean_bvp, mean_gsr, mean_temp);
        
    return flag;
    d84e:	bc30      	pop	{r4, r5}
    d850:	4770      	bx	lr
    d852:	bf00      	nop
    d854:	44480000 	.word	0x44480000
    d858:	00000000 	.word	0x00000000
    d85c:	481fe240 	.word	0x481fe240
    d860:	476aab00 	.word	0x476aab00
    d864:	47ca6f00 	.word	0x47ca6f00
    d868:	46516800 	.word	0x46516800
    d86c:	1004f000 	.word	0x1004f000
    d870:	46492000 	.word	0x46492000
    d874:	44048000 	.word	0x44048000
    d878:	41ffd70a 	.word	0x41ffd70a
    d87c:	41f4cccd 	.word	0x41f4cccd
    d880:	3fb0a3d7 	.word	0x3fb0a3d7

0000d884 <run_knn>:
#else
int32_t input_buffer[BUFFER_SIZE];
#endif


int run_knn (void) {
    d884:	b5f8      	push	{r3, r4, r5, r6, r7, lr}
    d886:	4c0c      	ldr	r4, [pc, #48]	; (d8b8 <run_knn+0x34>)
    d888:	4e0c      	ldr	r6, [pc, #48]	; (d8bc <run_knn+0x38>)
    d88a:	4d0d      	ldr	r5, [pc, #52]	; (d8c0 <run_knn+0x3c>)
    d88c:	f504 47fa 	add.w	r7, r4, #32000	; 0x7d00
    d890:	e001      	b.n	d896 <run_knn+0x12>
    // Note: In this implementation, we run the complete inference (all 10 batches) at once
    // there is no DMA transfer of the input data - input data are in .h file
    #ifndef DATA_ACQUISITION
    int count = 0;
    int temp;
    for (int i=0; i<WINDOWS; i++)   {
    d892:	42a7      	cmp	r7, r4
    d894:	d00e      	beq.n	d8b4 <run_knn+0x30>
        if (preprocess_input(bvp_sensor[i], gsr_sensor[i], temp_sensor[i])) {
    d896:	462a      	mov	r2, r5
    d898:	4631      	mov	r1, r6
    d89a:	4620      	mov	r0, r4
    d89c:	f7ff ff58 	bl	d750 <preprocess_input>
    d8a0:	f504 6448 	add.w	r4, r4, #3200	; 0xc80
    d8a4:	3628      	adds	r6, #40	; 0x28
    d8a6:	3510      	adds	r5, #16
    d8a8:	2800      	cmp	r0, #0
    d8aa:	d0f2      	beq.n	d892 <run_knn+0xe>
            temp = runKNN();
    d8ac:	f7ff ff4e 	bl	d74c <runKNN>
    for (int i=0; i<WINDOWS; i++)   {
    d8b0:	42a7      	cmp	r7, r4
    d8b2:	d1f0      	bne.n	d896 <run_knn+0x12>
    #else

    #endif

    return 0;
    d8b4:	2000      	movs	r0, #0
    d8b6:	bdf8      	pop	{r3, r4, r5, r6, r7, pc}
    d8b8:	0000e724 	.word	0x0000e724
    d8bc:	00016424 	.word	0x00016424
    d8c0:	000165b4 	.word	0x000165b4

0000d8c4 <am_bsp_low_power_init>:
    d8c4:	b5f8      	push	{r3, r4, r5, r6, r7, lr}
    d8c6:	f000 fd6d 	bl	e3a4 <am_hal_pwrctrl_low_power_init>
    d8ca:	f000 fe35 	bl	e538 <am_hal_rtc_osc_disable>
    d8ce:	4b0b      	ldr	r3, [pc, #44]	; (d8fc <am_bsp_low_power_init+0x38>)
    d8d0:	4f0b      	ldr	r7, [pc, #44]	; (d900 <am_bsp_low_power_init+0x3c>)
    d8d2:	681e      	ldr	r6, [r3, #0]
    d8d4:	2400      	movs	r4, #0
    d8d6:	f857 5034 	ldr.w	r5, [r7, r4, lsl #3]
    d8da:	4631      	mov	r1, r6
    d8dc:	4628      	mov	r0, r5
    d8de:	f000 faa5 	bl	de2c <am_hal_gpio_pinconfig>
    d8e2:	2103      	movs	r1, #3
    d8e4:	4628      	mov	r0, r5
    d8e6:	f000 fbd7 	bl	e098 <am_hal_gpio_state_write>
    d8ea:	3401      	adds	r4, #1
    d8ec:	2100      	movs	r1, #0
    d8ee:	4628      	mov	r0, r5
    d8f0:	f000 fbd2 	bl	e098 <am_hal_gpio_state_write>
    d8f4:	2c05      	cmp	r4, #5
    d8f6:	d1ee      	bne.n	d8d6 <am_bsp_low_power_init+0x12>
    d8f8:	bdf8      	pop	{r3, r4, r5, r6, r7, pc}
    d8fa:	bf00      	nop
    d8fc:	0001665c 	.word	0x0001665c
    d900:	10003f10 	.word	0x10003f10

0000d904 <am_hal_cachectrl_config>:
    d904:	b530      	push	{r4, r5, lr}
    d906:	b083      	sub	sp, #12
    d908:	4604      	mov	r4, r0
    d90a:	f000 fc47 	bl	e19c <am_hal_interrupt_master_disable>
    d90e:	4d0e      	ldr	r5, [pc, #56]	; (d948 <am_hal_cachectrl_config+0x44>)
    d910:	9001      	str	r0, [sp, #4]
    d912:	682b      	ldr	r3, [r5, #0]
    d914:	f423 7340 	bic.w	r3, r3, #768	; 0x300
    d918:	602b      	str	r3, [r5, #0]
    d91a:	9801      	ldr	r0, [sp, #4]
    d91c:	f000 fc42 	bl	e1a4 <am_hal_interrupt_master_set>
    d920:	7863      	ldrb	r3, [r4, #1]
    d922:	7822      	ldrb	r2, [r4, #0]
    d924:	78a1      	ldrb	r1, [r4, #2]
    d926:	021b      	lsls	r3, r3, #8
    d928:	f403 7340 	and.w	r3, r3, #768	; 0x300
    d92c:	0112      	lsls	r2, r2, #4
    d92e:	ea43 0341 	orr.w	r3, r3, r1, lsl #1
    d932:	b2d2      	uxtb	r2, r2
    d934:	4313      	orrs	r3, r2
    d936:	f443 1380 	orr.w	r3, r3, #1048576	; 0x100000
    d93a:	f443 6380 	orr.w	r3, r3, #1024	; 0x400
    d93e:	2000      	movs	r0, #0
    d940:	602b      	str	r3, [r5, #0]
    d942:	b003      	add	sp, #12
    d944:	bd30      	pop	{r4, r5, pc}
    d946:	bf00      	nop
    d948:	40018000 	.word	0x40018000

0000d94c <am_hal_cachectrl_enable>:
    d94c:	4a03      	ldr	r2, [pc, #12]	; (d95c <am_hal_cachectrl_enable+0x10>)
    d94e:	6813      	ldr	r3, [r2, #0]
    d950:	f043 0301 	orr.w	r3, r3, #1
    d954:	2000      	movs	r0, #0
    d956:	6013      	str	r3, [r2, #0]
    d958:	4770      	bx	lr
    d95a:	bf00      	nop
    d95c:	40018000 	.word	0x40018000

0000d960 <am_hal_cachectrl_control>:
    d960:	b510      	push	{r4, lr}
    d962:	3801      	subs	r0, #1
    d964:	b08e      	sub	sp, #56	; 0x38
    d966:	2810      	cmp	r0, #16
    d968:	f200 815e 	bhi.w	dc28 <am_hal_cachectrl_control+0x2c8>
    d96c:	e8df f010 	tbh	[pc, r0, lsl #1]
    d970:	00360018 	.word	0x00360018
    d974:	0040003d 	.word	0x0040003d
    d978:	00450043 	.word	0x00450043
    d97c:	0011001a 	.word	0x0011001a
    d980:	00540047 	.word	0x00540047
    d984:	009a0061 	.word	0x009a0061
    d988:	010c00d3 	.word	0x010c00d3
    d98c:	013f0126 	.word	0x013f0126
    d990:	001d      	.short	0x001d
    d992:	f44f 7300 	mov.w	r3, #512	; 0x200
    d996:	4aac      	ldr	r2, [pc, #688]	; (dc48 <am_hal_cachectrl_control+0x2e8>)
    d998:	2000      	movs	r0, #0
    d99a:	6093      	str	r3, [r2, #8]
    d99c:	b00e      	add	sp, #56	; 0x38
    d99e:	bd10      	pop	{r4, pc}
    d9a0:	2301      	movs	r3, #1
    d9a2:	e7f8      	b.n	d996 <am_hal_cachectrl_control+0x36>
    d9a4:	f44f 6380 	mov.w	r3, #1024	; 0x400
    d9a8:	e7f5      	b.n	d996 <am_hal_cachectrl_control+0x36>
    d9aa:	2900      	cmp	r1, #0
    d9ac:	f000 813c 	beq.w	dc28 <am_hal_cachectrl_control+0x2c8>
    d9b0:	684a      	ldr	r2, [r1, #4]
    d9b2:	48a6      	ldr	r0, [pc, #664]	; (dc4c <am_hal_cachectrl_control+0x2ec>)
    d9b4:	4202      	tst	r2, r0
    d9b6:	f040 8137 	bne.w	dc28 <am_hal_cachectrl_control+0x2c8>
    d9ba:	688b      	ldr	r3, [r1, #8]
    d9bc:	4018      	ands	r0, r3
    d9be:	f040 8133 	bne.w	dc28 <am_hal_cachectrl_control+0x2c8>
    d9c2:	780c      	ldrb	r4, [r1, #0]
    d9c4:	2c00      	cmp	r4, #0
    d9c6:	f040 8133 	bne.w	dc30 <am_hal_cachectrl_control+0x2d0>
    d9ca:	4c9f      	ldr	r4, [pc, #636]	; (dc48 <am_hal_cachectrl_control+0x2e8>)
    d9cc:	7849      	ldrb	r1, [r1, #1]
    d9ce:	6122      	str	r2, [r4, #16]
    d9d0:	6163      	str	r3, [r4, #20]
    d9d2:	6823      	ldr	r3, [r4, #0]
    d9d4:	f361 0382 	bfi	r3, r1, #2, #1
    d9d8:	6023      	str	r3, [r4, #0]
    d9da:	e7df      	b.n	d99c <am_hal_cachectrl_control+0x3c>
    d9dc:	4b9a      	ldr	r3, [pc, #616]	; (dc48 <am_hal_cachectrl_control+0x2e8>)
    d9de:	681b      	ldr	r3, [r3, #0]
    d9e0:	01db      	lsls	r3, r3, #7
    d9e2:	f140 811f 	bpl.w	dc24 <am_hal_cachectrl_control+0x2c4>
    d9e6:	2302      	movs	r3, #2
    d9e8:	e7d5      	b.n	d996 <am_hal_cachectrl_control+0x36>
    d9ea:	f44f 6388 	mov.w	r3, #1088	; 0x440
    d9ee:	e7d2      	b.n	d996 <am_hal_cachectrl_control+0x36>
    d9f0:	f44f 7308 	mov.w	r3, #544	; 0x220
    d9f4:	e7cf      	b.n	d996 <am_hal_cachectrl_control+0x36>
    d9f6:	2340      	movs	r3, #64	; 0x40
    d9f8:	e7cd      	b.n	d996 <am_hal_cachectrl_control+0x36>
    d9fa:	2320      	movs	r3, #32
    d9fc:	e7cb      	b.n	d996 <am_hal_cachectrl_control+0x36>
    d9fe:	f000 fbcd 	bl	e19c <am_hal_interrupt_master_disable>
    da02:	4a91      	ldr	r2, [pc, #580]	; (dc48 <am_hal_cachectrl_control+0x2e8>)
    da04:	9000      	str	r0, [sp, #0]
    da06:	6813      	ldr	r3, [r2, #0]
    da08:	f043 7380 	orr.w	r3, r3, #16777216	; 0x1000000
    da0c:	6013      	str	r3, [r2, #0]
    da0e:	9800      	ldr	r0, [sp, #0]
    da10:	f000 fbc8 	bl	e1a4 <am_hal_interrupt_master_set>
    da14:	2000      	movs	r0, #0
    da16:	e7c1      	b.n	d99c <am_hal_cachectrl_control+0x3c>
    da18:	f000 fbc0 	bl	e19c <am_hal_interrupt_master_disable>
    da1c:	4a8a      	ldr	r2, [pc, #552]	; (dc48 <am_hal_cachectrl_control+0x2e8>)
    da1e:	9001      	str	r0, [sp, #4]
    da20:	6813      	ldr	r3, [r2, #0]
    da22:	f023 7380 	bic.w	r3, r3, #16777216	; 0x1000000
    da26:	6013      	str	r3, [r2, #0]
    da28:	9801      	ldr	r0, [sp, #4]
    da2a:	f000 fbbb 	bl	e1a4 <am_hal_interrupt_master_set>
    da2e:	2000      	movs	r0, #0
    da30:	e7b4      	b.n	d99c <am_hal_cachectrl_control+0x3c>
    da32:	f000 fbb3 	bl	e19c <am_hal_interrupt_master_disable>
    da36:	4603      	mov	r3, r0
    da38:	4885      	ldr	r0, [pc, #532]	; (dc50 <am_hal_cachectrl_control+0x2f0>)
    da3a:	9302      	str	r3, [sp, #8]
    da3c:	f000 f9ec 	bl	de18 <am_hal_flash_load_ui32>
    da40:	f420 507c 	bic.w	r0, r0, #16128	; 0x3f00
    da44:	f440 61e0 	orr.w	r1, r0, #1792	; 0x700
    da48:	4881      	ldr	r0, [pc, #516]	; (dc50 <am_hal_cachectrl_control+0x2f0>)
    da4a:	f000 f9e9 	bl	de20 <am_hal_flash_store_ui32>
    da4e:	9802      	ldr	r0, [sp, #8]
    da50:	f000 fba8 	bl	e1a4 <am_hal_interrupt_master_set>
    da54:	f000 fba2 	bl	e19c <am_hal_interrupt_master_disable>
    da58:	4603      	mov	r3, r0
    da5a:	487d      	ldr	r0, [pc, #500]	; (dc50 <am_hal_cachectrl_control+0x2f0>)
    da5c:	9303      	str	r3, [sp, #12]
    da5e:	f000 f9db 	bl	de18 <am_hal_flash_load_ui32>
    da62:	f420 6077 	bic.w	r0, r0, #3952	; 0xf70
    da66:	f440 61ee 	orr.w	r1, r0, #1904	; 0x770
    da6a:	4879      	ldr	r0, [pc, #484]	; (dc50 <am_hal_cachectrl_control+0x2f0>)
    da6c:	f000 f9d8 	bl	de20 <am_hal_flash_store_ui32>
    da70:	9803      	ldr	r0, [sp, #12]
    da72:	f000 fb97 	bl	e1a4 <am_hal_interrupt_master_set>
    da76:	f000 fb91 	bl	e19c <am_hal_interrupt_master_disable>
    da7a:	4603      	mov	r3, r0
    da7c:	4874      	ldr	r0, [pc, #464]	; (dc50 <am_hal_cachectrl_control+0x2f0>)
    da7e:	9304      	str	r3, [sp, #16]
    da80:	f000 f9ca 	bl	de18 <am_hal_flash_load_ui32>
    da84:	f420 6070 	bic.w	r0, r0, #3840	; 0xf00
    da88:	f020 000f 	bic.w	r0, r0, #15
    da8c:	f440 61e0 	orr.w	r1, r0, #1792	; 0x700
    da90:	f041 0103 	orr.w	r1, r1, #3
    da94:	486e      	ldr	r0, [pc, #440]	; (dc50 <am_hal_cachectrl_control+0x2f0>)
    da96:	f000 f9c3 	bl	de20 <am_hal_flash_store_ui32>
    da9a:	9804      	ldr	r0, [sp, #16]
    da9c:	f000 fb82 	bl	e1a4 <am_hal_interrupt_master_set>
    daa0:	2000      	movs	r0, #0
    daa2:	e77b      	b.n	d99c <am_hal_cachectrl_control+0x3c>
    daa4:	f000 fb7a 	bl	e19c <am_hal_interrupt_master_disable>
    daa8:	4603      	mov	r3, r0
    daaa:	4869      	ldr	r0, [pc, #420]	; (dc50 <am_hal_cachectrl_control+0x2f0>)
    daac:	9305      	str	r3, [sp, #20]
    daae:	f000 f9b3 	bl	de18 <am_hal_flash_load_ui32>
    dab2:	f420 507c 	bic.w	r0, r0, #16128	; 0x3f00
    dab6:	f440 51b8 	orr.w	r1, r0, #5888	; 0x1700
    daba:	4865      	ldr	r0, [pc, #404]	; (dc50 <am_hal_cachectrl_control+0x2f0>)
    dabc:	f000 f9b0 	bl	de20 <am_hal_flash_store_ui32>
    dac0:	9805      	ldr	r0, [sp, #20]
    dac2:	f000 fb6f 	bl	e1a4 <am_hal_interrupt_master_set>
    dac6:	f000 fb69 	bl	e19c <am_hal_interrupt_master_disable>
    daca:	4603      	mov	r3, r0
    dacc:	4860      	ldr	r0, [pc, #384]	; (dc50 <am_hal_cachectrl_control+0x2f0>)
    dace:	9306      	str	r3, [sp, #24]
    dad0:	f000 f9a2 	bl	de18 <am_hal_flash_load_ui32>
    dad4:	f420 6077 	bic.w	r0, r0, #3952	; 0xf70
    dad8:	f440 61ea 	orr.w	r1, r0, #1872	; 0x750
    dadc:	485c      	ldr	r0, [pc, #368]	; (dc50 <am_hal_cachectrl_control+0x2f0>)
    dade:	f000 f99f 	bl	de20 <am_hal_flash_store_ui32>
    dae2:	9806      	ldr	r0, [sp, #24]
    dae4:	f000 fb5e 	bl	e1a4 <am_hal_interrupt_master_set>
    dae8:	f000 fb58 	bl	e19c <am_hal_interrupt_master_disable>
    daec:	4603      	mov	r3, r0
    daee:	4858      	ldr	r0, [pc, #352]	; (dc50 <am_hal_cachectrl_control+0x2f0>)
    daf0:	9307      	str	r3, [sp, #28]
    daf2:	f000 f991 	bl	de18 <am_hal_flash_load_ui32>
    daf6:	f420 6070 	bic.w	r0, r0, #3840	; 0xf00
    dafa:	f020 000f 	bic.w	r0, r0, #15
    dafe:	f440 61e0 	orr.w	r1, r0, #1792	; 0x700
    db02:	f041 0101 	orr.w	r1, r1, #1
    db06:	4852      	ldr	r0, [pc, #328]	; (dc50 <am_hal_cachectrl_control+0x2f0>)
    db08:	f000 f98a 	bl	de20 <am_hal_flash_store_ui32>
    db0c:	9807      	ldr	r0, [sp, #28]
    db0e:	f000 fb49 	bl	e1a4 <am_hal_interrupt_master_set>
    db12:	2000      	movs	r0, #0
    db14:	e742      	b.n	d99c <am_hal_cachectrl_control+0x3c>
    db16:	f000 fb41 	bl	e19c <am_hal_interrupt_master_disable>
    db1a:	4603      	mov	r3, r0
    db1c:	484c      	ldr	r0, [pc, #304]	; (dc50 <am_hal_cachectrl_control+0x2f0>)
    db1e:	9308      	str	r3, [sp, #32]
    db20:	f000 f97a 	bl	de18 <am_hal_flash_load_ui32>
    db24:	f420 507c 	bic.w	r0, r0, #16128	; 0x3f00
    db28:	f440 51b8 	orr.w	r1, r0, #5888	; 0x1700
    db2c:	4848      	ldr	r0, [pc, #288]	; (dc50 <am_hal_cachectrl_control+0x2f0>)
    db2e:	f000 f977 	bl	de20 <am_hal_flash_store_ui32>
    db32:	9808      	ldr	r0, [sp, #32]
    db34:	f000 fb36 	bl	e1a4 <am_hal_interrupt_master_set>
    db38:	f000 fb30 	bl	e19c <am_hal_interrupt_master_disable>
    db3c:	4603      	mov	r3, r0
    db3e:	4844      	ldr	r0, [pc, #272]	; (dc50 <am_hal_cachectrl_control+0x2f0>)
    db40:	9309      	str	r3, [sp, #36]	; 0x24
    db42:	f000 f969 	bl	de18 <am_hal_flash_load_ui32>
    db46:	f420 6077 	bic.w	r0, r0, #3952	; 0xf70
    db4a:	f440 61ec 	orr.w	r1, r0, #1888	; 0x760
    db4e:	4840      	ldr	r0, [pc, #256]	; (dc50 <am_hal_cachectrl_control+0x2f0>)
    db50:	f000 f966 	bl	de20 <am_hal_flash_store_ui32>
    db54:	9809      	ldr	r0, [sp, #36]	; 0x24
    db56:	f000 fb25 	bl	e1a4 <am_hal_interrupt_master_set>
    db5a:	f000 fb1f 	bl	e19c <am_hal_interrupt_master_disable>
    db5e:	4603      	mov	r3, r0
    db60:	483b      	ldr	r0, [pc, #236]	; (dc50 <am_hal_cachectrl_control+0x2f0>)
    db62:	930a      	str	r3, [sp, #40]	; 0x28
    db64:	f000 f958 	bl	de18 <am_hal_flash_load_ui32>
    db68:	f420 6070 	bic.w	r0, r0, #3840	; 0xf00
    db6c:	f020 000f 	bic.w	r0, r0, #15
    db70:	f440 61e0 	orr.w	r1, r0, #1792	; 0x700
    db74:	f041 0101 	orr.w	r1, r1, #1
    db78:	4835      	ldr	r0, [pc, #212]	; (dc50 <am_hal_cachectrl_control+0x2f0>)
    db7a:	f000 f951 	bl	de20 <am_hal_flash_store_ui32>
    db7e:	980a      	ldr	r0, [sp, #40]	; 0x28
    db80:	f000 fb10 	bl	e1a4 <am_hal_interrupt_master_set>
    db84:	2000      	movs	r0, #0
    db86:	e709      	b.n	d99c <am_hal_cachectrl_control+0x3c>
    db88:	2900      	cmp	r1, #0
    db8a:	d04d      	beq.n	dc28 <am_hal_cachectrl_control+0x2c8>
    db8c:	680c      	ldr	r4, [r1, #0]
    db8e:	2c03      	cmp	r4, #3
    db90:	d84c      	bhi.n	dc2c <am_hal_cachectrl_control+0x2cc>
    db92:	f000 fb03 	bl	e19c <am_hal_interrupt_master_disable>
    db96:	4603      	mov	r3, r0
    db98:	482d      	ldr	r0, [pc, #180]	; (dc50 <am_hal_cachectrl_control+0x2f0>)
    db9a:	930b      	str	r3, [sp, #44]	; 0x2c
    db9c:	f000 f93c 	bl	de18 <am_hal_flash_load_ui32>
    dba0:	f420 507c 	bic.w	r0, r0, #16128	; 0x3f00
    dba4:	ea40 3104 	orr.w	r1, r0, r4, lsl #12
    dba8:	f441 61e0 	orr.w	r1, r1, #1792	; 0x700
    dbac:	4828      	ldr	r0, [pc, #160]	; (dc50 <am_hal_cachectrl_control+0x2f0>)
    dbae:	f000 f937 	bl	de20 <am_hal_flash_store_ui32>
    dbb2:	980b      	ldr	r0, [sp, #44]	; 0x2c
    dbb4:	f000 faf6 	bl	e1a4 <am_hal_interrupt_master_set>
    dbb8:	2000      	movs	r0, #0
    dbba:	e6ef      	b.n	d99c <am_hal_cachectrl_control+0x3c>
    dbbc:	b3a1      	cbz	r1, dc28 <am_hal_cachectrl_control+0x2c8>
    dbbe:	680c      	ldr	r4, [r1, #0]
    dbc0:	2c07      	cmp	r4, #7
    dbc2:	d833      	bhi.n	dc2c <am_hal_cachectrl_control+0x2cc>
    dbc4:	f000 faea 	bl	e19c <am_hal_interrupt_master_disable>
    dbc8:	4603      	mov	r3, r0
    dbca:	4821      	ldr	r0, [pc, #132]	; (dc50 <am_hal_cachectrl_control+0x2f0>)
    dbcc:	930c      	str	r3, [sp, #48]	; 0x30
    dbce:	f000 f923 	bl	de18 <am_hal_flash_load_ui32>
    dbd2:	f420 6077 	bic.w	r0, r0, #3952	; 0xf70
    dbd6:	ea40 1104 	orr.w	r1, r0, r4, lsl #4
    dbda:	f441 61e0 	orr.w	r1, r1, #1792	; 0x700
    dbde:	481c      	ldr	r0, [pc, #112]	; (dc50 <am_hal_cachectrl_control+0x2f0>)
    dbe0:	f000 f91e 	bl	de20 <am_hal_flash_store_ui32>
    dbe4:	980c      	ldr	r0, [sp, #48]	; 0x30
    dbe6:	f000 fadd 	bl	e1a4 <am_hal_interrupt_master_set>
    dbea:	2000      	movs	r0, #0
    dbec:	e6d6      	b.n	d99c <am_hal_cachectrl_control+0x3c>
    dbee:	b1d9      	cbz	r1, dc28 <am_hal_cachectrl_control+0x2c8>
    dbf0:	680c      	ldr	r4, [r1, #0]
    dbf2:	2c0f      	cmp	r4, #15
    dbf4:	d81a      	bhi.n	dc2c <am_hal_cachectrl_control+0x2cc>
    dbf6:	f000 fad1 	bl	e19c <am_hal_interrupt_master_disable>
    dbfa:	4603      	mov	r3, r0
    dbfc:	4814      	ldr	r0, [pc, #80]	; (dc50 <am_hal_cachectrl_control+0x2f0>)
    dbfe:	930d      	str	r3, [sp, #52]	; 0x34
    dc00:	f000 f90a 	bl	de18 <am_hal_flash_load_ui32>
    dc04:	f420 6070 	bic.w	r0, r0, #3840	; 0xf00
    dc08:	f020 000f 	bic.w	r0, r0, #15
    dc0c:	ea40 0104 	orr.w	r1, r0, r4
    dc10:	f441 61e0 	orr.w	r1, r1, #1792	; 0x700
    dc14:	480e      	ldr	r0, [pc, #56]	; (dc50 <am_hal_cachectrl_control+0x2f0>)
    dc16:	f000 f903 	bl	de20 <am_hal_flash_store_ui32>
    dc1a:	980d      	ldr	r0, [sp, #52]	; 0x34
    dc1c:	f000 fac2 	bl	e1a4 <am_hal_interrupt_master_set>
    dc20:	2000      	movs	r0, #0
    dc22:	e6bb      	b.n	d99c <am_hal_cachectrl_control+0x3c>
    dc24:	2007      	movs	r0, #7
    dc26:	e6b9      	b.n	d99c <am_hal_cachectrl_control+0x3c>
    dc28:	2006      	movs	r0, #6
    dc2a:	e6b7      	b.n	d99c <am_hal_cachectrl_control+0x3c>
    dc2c:	2001      	movs	r0, #1
    dc2e:	e6b5      	b.n	d99c <am_hal_cachectrl_control+0x3c>
    dc30:	2c01      	cmp	r4, #1
    dc32:	d1f9      	bne.n	dc28 <am_hal_cachectrl_control+0x2c8>
    dc34:	4c04      	ldr	r4, [pc, #16]	; (dc48 <am_hal_cachectrl_control+0x2e8>)
    dc36:	7849      	ldrb	r1, [r1, #1]
    dc38:	61a2      	str	r2, [r4, #24]
    dc3a:	61e3      	str	r3, [r4, #28]
    dc3c:	6823      	ldr	r3, [r4, #0]
    dc3e:	f361 03c3 	bfi	r3, r1, #3, #1
    dc42:	6023      	str	r3, [r4, #0]
    dc44:	e6aa      	b.n	d99c <am_hal_cachectrl_control+0x3c>
    dc46:	bf00      	nop
    dc48:	40018000 	.word	0x40018000
    dc4c:	f800000f 	.word	0xf800000f
    dc50:	40018004 	.word	0x40018004

0000dc54 <am_hal_clkgen_control>:
    dc54:	4b49      	ldr	r3, [pc, #292]	; (dd7c <am_hal_clkgen_control+0x128>)
    dc56:	681a      	ldr	r2, [r3, #0]
    dc58:	b912      	cbnz	r2, dc60 <am_hal_clkgen_control+0xc>
    dc5a:	4a49      	ldr	r2, [pc, #292]	; (dd80 <am_hal_clkgen_control+0x12c>)
    dc5c:	6812      	ldr	r2, [r2, #0]
    dc5e:	601a      	str	r2, [r3, #0]
    dc60:	2809      	cmp	r0, #9
    dc62:	f200 8089 	bhi.w	dd78 <am_hal_clkgen_control+0x124>
    dc66:	e8df f000 	tbb	[pc, r0]
    dc6a:	160d      	.short	0x160d
    dc6c:	423a261e 	.word	0x423a261e
    dc70:	055c544c 	.word	0x055c544c
    dc74:	f04f 2340 	mov.w	r3, #1073758208	; 0x40004000
    dc78:	2000      	movs	r0, #0
    dc7a:	6a1a      	ldr	r2, [r3, #32]
    dc7c:	f36f 0200 	bfc	r2, #0, #1
    dc80:	621a      	str	r2, [r3, #32]
    dc82:	4770      	bx	lr
    dc84:	f04f 2340 	mov.w	r3, #1073758208	; 0x40004000
    dc88:	2200      	movs	r2, #0
    dc8a:	2147      	movs	r1, #71	; 0x47
    dc8c:	6159      	str	r1, [r3, #20]
    dc8e:	4610      	mov	r0, r2
    dc90:	619a      	str	r2, [r3, #24]
    dc92:	615a      	str	r2, [r3, #20]
    dc94:	4770      	bx	lr
    dc96:	f04f 2340 	mov.w	r3, #1073758208	; 0x40004000
    dc9a:	2000      	movs	r0, #0
    dc9c:	68da      	ldr	r2, [r3, #12]
    dc9e:	f36f 0200 	bfc	r2, #0, #1
    dca2:	60da      	str	r2, [r3, #12]
    dca4:	4770      	bx	lr
    dca6:	f04f 2340 	mov.w	r3, #1073758208	; 0x40004000
    dcaa:	2000      	movs	r0, #0
    dcac:	68da      	ldr	r2, [r3, #12]
    dcae:	f36f 0241 	bfc	r2, #1, #1
    dcb2:	60da      	str	r2, [r3, #12]
    dcb4:	4770      	bx	lr
    dcb6:	4a33      	ldr	r2, [pc, #204]	; (dd84 <am_hal_clkgen_control+0x130>)
    dcb8:	68d3      	ldr	r3, [r2, #12]
    dcba:	b2db      	uxtb	r3, r3
    dcbc:	2b21      	cmp	r3, #33	; 0x21
    dcbe:	d106      	bne.n	dcce <am_hal_clkgen_control+0x7a>
    dcc0:	f8d2 3120 	ldr.w	r3, [r2, #288]	; 0x120
    dcc4:	2101      	movs	r1, #1
    dcc6:	f361 2309 	bfi	r3, r1, #8, #2
    dcca:	f8c2 3120 	str.w	r3, [r2, #288]	; 0x120
    dcce:	f04f 2240 	mov.w	r2, #1073758208	; 0x40004000
    dcd2:	2000      	movs	r0, #0
    dcd4:	68d3      	ldr	r3, [r2, #12]
    dcd6:	f043 0301 	orr.w	r3, r3, #1
    dcda:	60d3      	str	r3, [r2, #12]
    dcdc:	4770      	bx	lr
    dcde:	f04f 2240 	mov.w	r2, #1073758208	; 0x40004000
    dce2:	2000      	movs	r0, #0
    dce4:	68d3      	ldr	r3, [r2, #12]
    dce6:	f043 0302 	orr.w	r3, r3, #2
    dcea:	60d3      	str	r3, [r2, #12]
    dcec:	4770      	bx	lr
    dcee:	f04f 2340 	mov.w	r3, #1073758208	; 0x40004000
    dcf2:	2200      	movs	r2, #0
    dcf4:	2047      	movs	r0, #71	; 0x47
    dcf6:	2101      	movs	r1, #1
    dcf8:	6158      	str	r0, [r3, #20]
    dcfa:	6199      	str	r1, [r3, #24]
    dcfc:	4610      	mov	r0, r2
    dcfe:	615a      	str	r2, [r3, #20]
    dd00:	4770      	bx	lr
    dd02:	f04f 2340 	mov.w	r3, #1073758208	; 0x40004000
    dd06:	2000      	movs	r0, #0
    dd08:	68da      	ldr	r2, [r3, #12]
    dd0a:	f36f 12c7 	bfc	r2, #7, #1
    dd0e:	60da      	str	r2, [r3, #12]
    dd10:	4770      	bx	lr
    dd12:	f04f 2240 	mov.w	r2, #1073758208	; 0x40004000
    dd16:	2000      	movs	r0, #0
    dd18:	68d3      	ldr	r3, [r2, #12]
    dd1a:	f043 0380 	orr.w	r3, r3, #128	; 0x80
    dd1e:	60d3      	str	r3, [r2, #12]
    dd20:	4770      	bx	lr
    dd22:	4a18      	ldr	r2, [pc, #96]	; (dd84 <am_hal_clkgen_control+0x130>)
    dd24:	68d3      	ldr	r3, [r2, #12]
    dd26:	b2db      	uxtb	r3, r3
    dd28:	2b21      	cmp	r3, #33	; 0x21
    dd2a:	d00a      	beq.n	dd42 <am_hal_clkgen_control+0xee>
    dd2c:	b139      	cbz	r1, dd3e <am_hal_clkgen_control+0xea>
    dd2e:	680b      	ldr	r3, [r1, #0]
    dd30:	f043 0301 	orr.w	r3, r3, #1
    dd34:	f04f 2240 	mov.w	r2, #1073758208	; 0x40004000
    dd38:	2000      	movs	r0, #0
    dd3a:	6213      	str	r3, [r2, #32]
    dd3c:	4770      	bx	lr
    dd3e:	4b12      	ldr	r3, [pc, #72]	; (dd88 <am_hal_clkgen_control+0x134>)
    dd40:	e7f8      	b.n	dd34 <am_hal_clkgen_control+0xe0>
    dd42:	b500      	push	{lr}
    dd44:	b083      	sub	sp, #12
    dd46:	f44f 507a 	mov.w	r0, #16000	; 0x3e80
    dd4a:	9101      	str	r1, [sp, #4]
    dd4c:	f8d2 3120 	ldr.w	r3, [r2, #288]	; 0x120
    dd50:	f443 7340 	orr.w	r3, r3, #768	; 0x300
    dd54:	f8c2 3120 	str.w	r3, [r2, #288]	; 0x120
    dd58:	f000 f818 	bl	dd8c <am_hal_flash_delay>
    dd5c:	9901      	ldr	r1, [sp, #4]
    dd5e:	b149      	cbz	r1, dd74 <am_hal_clkgen_control+0x120>
    dd60:	680b      	ldr	r3, [r1, #0]
    dd62:	f043 0301 	orr.w	r3, r3, #1
    dd66:	f04f 2240 	mov.w	r2, #1073758208	; 0x40004000
    dd6a:	2000      	movs	r0, #0
    dd6c:	6213      	str	r3, [r2, #32]
    dd6e:	b003      	add	sp, #12
    dd70:	f85d fb04 	ldr.w	pc, [sp], #4
    dd74:	4b04      	ldr	r3, [pc, #16]	; (dd88 <am_hal_clkgen_control+0x134>)
    dd76:	e7f6      	b.n	dd66 <am_hal_clkgen_control+0x112>
    dd78:	2006      	movs	r0, #6
    dd7a:	4770      	bx	lr
    dd7c:	1004eff4 	.word	0x1004eff4
    dd80:	4ffff000 	.word	0x4ffff000
    dd84:	40020000 	.word	0x40020000
    dd88:	0025b801 	.word	0x0025b801

0000dd8c <am_hal_flash_delay>:
    dd8c:	f04f 2340 	mov.w	r3, #1073758208	; 0x40004000
    dd90:	6b5b      	ldr	r3, [r3, #52]	; 0x34
    dd92:	075b      	lsls	r3, r3, #29
    dd94:	bf46      	itte	mi
    dd96:	0040      	lslmi	r0, r0, #1
    dd98:	230e      	movmi	r3, #14
    dd9a:	230b      	movpl	r3, #11
    dd9c:	4298      	cmp	r0, r3
    dd9e:	d902      	bls.n	dda6 <am_hal_flash_delay+0x1a>
    dda0:	4a01      	ldr	r2, [pc, #4]	; (dda8 <am_hal_flash_delay+0x1c>)
    dda2:	1ac0      	subs	r0, r0, r3
    dda4:	4710      	bx	r2
    dda6:	4770      	bx	lr
    dda8:	0800009d 	.word	0x0800009d

0000ddac <am_hal_flash_delay_status_check>:
    ddac:	e92d 43f8 	stmdb	sp!, {r3, r4, r5, r6, r7, r8, r9, lr}
    ddb0:	f89d c020 	ldrb.w	ip, [sp, #32]
    ddb4:	f8df 805c 	ldr.w	r8, [pc, #92]	; de14 <am_hal_flash_delay_status_check+0x68>
    ddb8:	4604      	mov	r4, r0
    ddba:	460d      	mov	r5, r1
    ddbc:	4616      	mov	r6, r2
    ddbe:	461f      	mov	r7, r3
    ddc0:	f04f 2940 	mov.w	r9, #1073758208	; 0x40004000
    ddc4:	f1bc 0f00 	cmp.w	ip, #0
    ddc8:	d00a      	beq.n	dde0 <am_hal_flash_delay_status_check+0x34>
    ddca:	e01a      	b.n	de02 <am_hal_flash_delay_status_check+0x56>
    ddcc:	b1f4      	cbz	r4, de0c <am_hal_flash_delay_status_check+0x60>
    ddce:	f8d9 3034 	ldr.w	r3, [r9, #52]	; 0x34
    ddd2:	f013 0f04 	tst.w	r3, #4
    ddd6:	bf0c      	ite	eq
    ddd8:	2005      	moveq	r0, #5
    ddda:	2012      	movne	r0, #18
    dddc:	3c01      	subs	r4, #1
    ddde:	47c0      	blx	r8
    dde0:	6828      	ldr	r0, [r5, #0]
    dde2:	4030      	ands	r0, r6
    dde4:	42b8      	cmp	r0, r7
    dde6:	d0f1      	beq.n	ddcc <am_hal_flash_delay_status_check+0x20>
    dde8:	2000      	movs	r0, #0
    ddea:	e8bd 83f8 	ldmia.w	sp!, {r3, r4, r5, r6, r7, r8, r9, pc}
    ddee:	b16c      	cbz	r4, de0c <am_hal_flash_delay_status_check+0x60>
    ddf0:	f8d9 3034 	ldr.w	r3, [r9, #52]	; 0x34
    ddf4:	f013 0f04 	tst.w	r3, #4
    ddf8:	bf0c      	ite	eq
    ddfa:	2005      	moveq	r0, #5
    ddfc:	2012      	movne	r0, #18
    ddfe:	3c01      	subs	r4, #1
    de00:	47c0      	blx	r8
    de02:	6828      	ldr	r0, [r5, #0]
    de04:	4030      	ands	r0, r6
    de06:	42b8      	cmp	r0, r7
    de08:	d1f1      	bne.n	ddee <am_hal_flash_delay_status_check+0x42>
    de0a:	e7ed      	b.n	dde8 <am_hal_flash_delay_status_check+0x3c>
    de0c:	2004      	movs	r0, #4
    de0e:	e8bd 83f8 	ldmia.w	sp!, {r3, r4, r5, r6, r7, r8, r9, pc}
    de12:	bf00      	nop
    de14:	0800009d 	.word	0x0800009d

0000de18 <am_hal_flash_load_ui32>:
    de18:	4b00      	ldr	r3, [pc, #0]	; (de1c <am_hal_flash_load_ui32+0x4>)
    de1a:	4718      	bx	r3
    de1c:	08000075 	.word	0x08000075

0000de20 <am_hal_flash_store_ui32>:
    de20:	4b01      	ldr	r3, [pc, #4]	; (de28 <am_hal_flash_store_ui32+0x8>)
    de22:	f043 0301 	orr.w	r3, r3, #1
    de26:	4718      	bx	r3
    de28:	10003f38 	.word	0x10003f38

0000de2c <am_hal_gpio_pinconfig>:
    de2c:	2831      	cmp	r0, #49	; 0x31
    de2e:	f200 80c3 	bhi.w	dfb8 <am_hal_gpio_pinconfig+0x18c>
    de32:	e92d 4ff0 	stmdb	sp!, {r4, r5, r6, r7, r8, r9, sl, fp, lr}
    de36:	4604      	mov	r4, r0
    de38:	f011 07e0 	ands.w	r7, r1, #224	; 0xe0
    de3c:	f001 0007 	and.w	r0, r1, #7
    de40:	b085      	sub	sp, #20
    de42:	f3c1 03c1 	ubfx	r3, r1, #3, #2
    de46:	ea4f 02c0 	mov.w	r2, r0, lsl #3
    de4a:	d00f      	beq.n	de6c <am_hal_gpio_pinconfig+0x40>
    de4c:	f3c1 1642 	ubfx	r6, r1, #5, #3
    de50:	1db5      	adds	r5, r6, #6
    de52:	f005 0507 	and.w	r5, r5, #7
    de56:	2d03      	cmp	r5, #3
    de58:	f042 0201 	orr.w	r2, r2, #1
    de5c:	f240 80ae 	bls.w	dfbc <am_hal_gpio_pinconfig+0x190>
    de60:	2fc0      	cmp	r7, #192	; 0xc0
    de62:	f000 80e1 	beq.w	e028 <am_hal_gpio_pinconfig+0x1fc>
    de66:	2f20      	cmp	r7, #32
    de68:	f000 80e3 	beq.w	e032 <am_hal_gpio_pinconfig+0x206>
    de6c:	b163      	cbz	r3, de88 <am_hal_gpio_pinconfig+0x5c>
    de6e:	2b01      	cmp	r3, #1
    de70:	f000 80d3 	beq.w	e01a <am_hal_gpio_pinconfig+0x1ee>
    de74:	2b02      	cmp	r3, #2
    de76:	f040 80c9 	bne.w	e00c <am_hal_gpio_pinconfig+0x1e0>
    de7a:	4b79      	ldr	r3, [pc, #484]	; (e060 <am_hal_gpio_pinconfig+0x234>)
    de7c:	5d1b      	ldrb	r3, [r3, r4]
    de7e:	075b      	lsls	r3, r3, #29
    de80:	f140 80c4 	bpl.w	e00c <am_hal_gpio_pinconfig+0x1e0>
    de84:	f042 0280 	orr.w	r2, r2, #128	; 0x80
    de88:	4b76      	ldr	r3, [pc, #472]	; (e064 <am_hal_gpio_pinconfig+0x238>)
    de8a:	5d1b      	ldrb	r3, [r3, r4]
    de8c:	4103      	asrs	r3, r0
    de8e:	005b      	lsls	r3, r3, #1
    de90:	f003 0302 	and.w	r3, r3, #2
    de94:	4313      	orrs	r3, r2
    de96:	4a74      	ldr	r2, [pc, #464]	; (e068 <am_hal_gpio_pinconfig+0x23c>)
    de98:	5d12      	ldrb	r2, [r2, r4]
    de9a:	4282      	cmp	r2, r0
    de9c:	f000 8099 	beq.w	dfd2 <am_hal_gpio_pinconfig+0x1a6>
    dea0:	f3c1 3000 	ubfx	r0, r1, #12, #1
    dea4:	f3c1 2581 	ubfx	r5, r1, #10, #2
    dea8:	f3c1 3280 	ubfx	r2, r1, #14, #1
    deac:	ea43 0340 	orr.w	r3, r3, r0, lsl #1
    deb0:	0a88      	lsrs	r0, r1, #10
    deb2:	ea42 0245 	orr.w	r2, r2, r5, lsl #1
    deb6:	f000 0008 	and.w	r0, r0, #8
    deba:	4302      	orrs	r2, r0
    debc:	f3c1 2007 	ubfx	r0, r1, #8, #8
    dec0:	f000 050c 	and.w	r5, r0, #12
    dec4:	2d04      	cmp	r5, #4
    dec6:	f000 80a5 	beq.w	e014 <am_hal_gpio_pinconfig+0x1e8>
    deca:	4d68      	ldr	r5, [pc, #416]	; (e06c <am_hal_gpio_pinconfig+0x240>)
    decc:	682d      	ldr	r5, [r5, #0]
    dece:	eba1 0805 	sub.w	r8, r1, r5
    ded2:	fab8 f888 	clz	r8, r8
    ded6:	ea4f 1858 	mov.w	r8, r8, lsr #5
    deda:	f010 0f60 	tst.w	r0, #96	; 0x60
    dede:	bf04      	itt	eq
    dee0:	f3c1 30c0 	ubfxeq	r0, r1, #15, #1
    dee4:	f360 0200 	bfieq	r2, r0, #0, #1
    dee8:	00a0      	lsls	r0, r4, #2
    deea:	f3c1 2101 	ubfx	r1, r1, #8, #2
    deee:	2902      	cmp	r1, #2
    def0:	d05c      	beq.n	dfac <am_hal_gpio_pinconfig+0x180>
    def2:	2903      	cmp	r1, #3
    def4:	d058      	beq.n	dfa8 <am_hal_gpio_pinconfig+0x17c>
    def6:	2901      	cmp	r1, #1
    def8:	ea4f 01c4 	mov.w	r1, r4, lsl #3
    defc:	bf08      	it	eq
    defe:	f043 0304 	orreq.w	r3, r3, #4
    df02:	f001 0118 	and.w	r1, r1, #24
    df06:	2700      	movs	r7, #0
    df08:	f000 001c 	and.w	r0, r0, #28
    df0c:	fa02 f600 	lsl.w	r6, r2, r0
    df10:	220f      	movs	r2, #15
    df12:	4082      	lsls	r2, r0
    df14:	43d2      	mvns	r2, r2
    df16:	f04f 09ff 	mov.w	r9, #255	; 0xff
    df1a:	fa03 f501 	lsl.w	r5, r3, r1
    df1e:	fa09 f901 	lsl.w	r9, r9, r1
    df22:	9201      	str	r2, [sp, #4]
    df24:	f000 f93a 	bl	e19c <am_hal_interrupt_master_disable>
    df28:	f024 0a03 	bic.w	sl, r4, #3
    df2c:	ea4f 0b54 	mov.w	fp, r4, lsr #1
    df30:	f10a 4c80 	add.w	ip, sl, #1073741824	; 0x40000000
    df34:	4b4e      	ldr	r3, [pc, #312]	; (e070 <am_hal_gpio_pinconfig+0x244>)
    df36:	494f      	ldr	r1, [pc, #316]	; (e074 <am_hal_gpio_pinconfig+0x248>)
    df38:	9a01      	ldr	r2, [sp, #4]
    df3a:	9003      	str	r0, [sp, #12]
    df3c:	ea6f 0909 	mvn.w	r9, r9
    df40:	f02b 0b03 	bic.w	fp, fp, #3
    df44:	f50c 3c80 	add.w	ip, ip, #65536	; 0x10000
    df48:	f1b8 0f00 	cmp.w	r8, #0
    df4c:	d00b      	beq.n	df66 <am_hal_gpio_pinconfig+0x13a>
    df4e:	ea4f 0ed4 	mov.w	lr, r4, lsr #3
    df52:	f004 081f 	and.w	r8, r4, #31
    df56:	4848      	ldr	r0, [pc, #288]	; (e078 <am_hal_gpio_pinconfig+0x24c>)
    df58:	f00e 0e04 	and.w	lr, lr, #4
    df5c:	2401      	movs	r4, #1
    df5e:	fa04 f408 	lsl.w	r4, r4, r8
    df62:	f84e 4000 	str.w	r4, [lr, r0]
    df66:	4845      	ldr	r0, [pc, #276]	; (e07c <am_hal_gpio_pinconfig+0x250>)
    df68:	2473      	movs	r4, #115	; 0x73
    df6a:	6604      	str	r4, [r0, #96]	; 0x60
    df6c:	f8dc 4000 	ldr.w	r4, [ip]
    df70:	ea04 0409 	and.w	r4, r4, r9
    df74:	4325      	orrs	r5, r4
    df76:	f8cc 5000 	str.w	r5, [ip]
    df7a:	f85b 4003 	ldr.w	r4, [fp, r3]
    df7e:	4022      	ands	r2, r4
    df80:	4332      	orrs	r2, r6
    df82:	f84b 2003 	str.w	r2, [fp, r3]
    df86:	f85a 3001 	ldr.w	r3, [sl, r1]
    df8a:	ea03 0909 	and.w	r9, r3, r9
    df8e:	2400      	movs	r4, #0
    df90:	ea49 0707 	orr.w	r7, r9, r7
    df94:	f84a 7001 	str.w	r7, [sl, r1]
    df98:	6604      	str	r4, [r0, #96]	; 0x60
    df9a:	9803      	ldr	r0, [sp, #12]
    df9c:	f000 f902 	bl	e1a4 <am_hal_interrupt_master_set>
    dfa0:	4620      	mov	r0, r4
    dfa2:	b005      	add	sp, #20
    dfa4:	e8bd 8ff0 	ldmia.w	sp!, {r4, r5, r6, r7, r8, r9, sl, fp, pc}
    dfa8:	f043 0304 	orr.w	r3, r3, #4
    dfac:	00e1      	lsls	r1, r4, #3
    dfae:	f001 0118 	and.w	r1, r1, #24
    dfb2:	2701      	movs	r7, #1
    dfb4:	408f      	lsls	r7, r1
    dfb6:	e7a7      	b.n	df08 <am_hal_gpio_pinconfig+0xdc>
    dfb8:	2006      	movs	r0, #6
    dfba:	4770      	bx	lr
    dfbc:	4d28      	ldr	r5, [pc, #160]	; (e060 <am_hal_gpio_pinconfig+0x234>)
    dfbe:	5d2d      	ldrb	r5, [r5, r4]
    dfc0:	3e02      	subs	r6, #2
    dfc2:	ea42 1286 	orr.w	r2, r2, r6, lsl #6
    dfc6:	07ee      	lsls	r6, r5, #31
    dfc8:	d536      	bpl.n	e038 <am_hal_gpio_pinconfig+0x20c>
    dfca:	2b00      	cmp	r3, #0
    dfcc:	f43f af5c 	beq.w	de88 <am_hal_gpio_pinconfig+0x5c>
    dfd0:	e74d      	b.n	de6e <am_hal_gpio_pinconfig+0x42>
    dfd2:	f3c1 4202 	ubfx	r2, r1, #16, #3
    dfd6:	2a07      	cmp	r2, #7
    dfd8:	d030      	beq.n	e03c <am_hal_gpio_pinconfig+0x210>
    dfda:	4d29      	ldr	r5, [pc, #164]	; (e080 <am_hal_gpio_pinconfig+0x254>)
    dfdc:	f3c1 40c1 	ubfx	r0, r1, #19, #2
    dfe0:	ea40 1202 	orr.w	r2, r0, r2, lsl #4
    dfe4:	f815 0024 	ldrb.w	r0, [r5, r4, lsl #2]
    dfe8:	4290      	cmp	r0, r2
    dfea:	d029      	beq.n	e040 <am_hal_gpio_pinconfig+0x214>
    dfec:	eb05 0584 	add.w	r5, r5, r4, lsl #2
    dff0:	00a0      	lsls	r0, r4, #2
    dff2:	786e      	ldrb	r6, [r5, #1]
    dff4:	4296      	cmp	r6, r2
    dff6:	d02d      	beq.n	e054 <am_hal_gpio_pinconfig+0x228>
    dff8:	78ae      	ldrb	r6, [r5, #2]
    dffa:	4296      	cmp	r6, r2
    dffc:	d02c      	beq.n	e058 <am_hal_gpio_pinconfig+0x22c>
    dffe:	78ed      	ldrb	r5, [r5, #3]
    e000:	4295      	cmp	r5, r2
    e002:	d02b      	beq.n	e05c <am_hal_gpio_pinconfig+0x230>
    e004:	481f      	ldr	r0, [pc, #124]	; (e084 <am_hal_gpio_pinconfig+0x258>)
    e006:	b005      	add	sp, #20
    e008:	e8bd 8ff0 	ldmia.w	sp!, {r4, r5, r6, r7, r8, r9, sl, fp, pc}
    e00c:	481e      	ldr	r0, [pc, #120]	; (e088 <am_hal_gpio_pinconfig+0x25c>)
    e00e:	b005      	add	sp, #20
    e010:	e8bd 8ff0 	ldmia.w	sp!, {r4, r5, r6, r7, r8, r9, sl, fp, pc}
    e014:	f04f 0801 	mov.w	r8, #1
    e018:	e75f      	b.n	deda <am_hal_gpio_pinconfig+0xae>
    e01a:	4b11      	ldr	r3, [pc, #68]	; (e060 <am_hal_gpio_pinconfig+0x234>)
    e01c:	5d1b      	ldrb	r3, [r3, r4]
    e01e:	079d      	lsls	r5, r3, #30
    e020:	d5f4      	bpl.n	e00c <am_hal_gpio_pinconfig+0x1e0>
    e022:	f042 0240 	orr.w	r2, r2, #64	; 0x40
    e026:	e72f      	b.n	de88 <am_hal_gpio_pinconfig+0x5c>
    e028:	2c14      	cmp	r4, #20
    e02a:	f43f af1f 	beq.w	de6c <am_hal_gpio_pinconfig+0x40>
    e02e:	4817      	ldr	r0, [pc, #92]	; (e08c <am_hal_gpio_pinconfig+0x260>)
    e030:	e7b7      	b.n	dfa2 <am_hal_gpio_pinconfig+0x176>
    e032:	2c14      	cmp	r4, #20
    e034:	f47f af1a 	bne.w	de6c <am_hal_gpio_pinconfig+0x40>
    e038:	4815      	ldr	r0, [pc, #84]	; (e090 <am_hal_gpio_pinconfig+0x264>)
    e03a:	e7b2      	b.n	dfa2 <am_hal_gpio_pinconfig+0x176>
    e03c:	4815      	ldr	r0, [pc, #84]	; (e094 <am_hal_gpio_pinconfig+0x268>)
    e03e:	e7b0      	b.n	dfa2 <am_hal_gpio_pinconfig+0x176>
    e040:	2200      	movs	r2, #0
    e042:	00a0      	lsls	r0, r4, #2
    e044:	0052      	lsls	r2, r2, #1
    e046:	f3c1 5540 	ubfx	r5, r1, #21, #1
    e04a:	ea42 02c5 	orr.w	r2, r2, r5, lsl #3
    e04e:	f04f 0800 	mov.w	r8, #0
    e052:	e74a      	b.n	deea <am_hal_gpio_pinconfig+0xbe>
    e054:	2201      	movs	r2, #1
    e056:	e7f5      	b.n	e044 <am_hal_gpio_pinconfig+0x218>
    e058:	2202      	movs	r2, #2
    e05a:	e7f3      	b.n	e044 <am_hal_gpio_pinconfig+0x218>
    e05c:	2203      	movs	r2, #3
    e05e:	e7f1      	b.n	e044 <am_hal_gpio_pinconfig+0x218>
    e060:	00016664 	.word	0x00016664
    e064:	00016698 	.word	0x00016698
    e068:	00016794 	.word	0x00016794
    e06c:	00016658 	.word	0x00016658
    e070:	40010040 	.word	0x40010040
    e074:	400100e0 	.word	0x400100e0
    e078:	400100b4 	.word	0x400100b4
    e07c:	40010000 	.word	0x40010000
    e080:	000166cc 	.word	0x000166cc
    e084:	08000104 	.word	0x08000104
    e088:	08000102 	.word	0x08000102
    e08c:	08000101 	.word	0x08000101
    e090:	08000100 	.word	0x08000100
    e094:	08000103 	.word	0x08000103

0000e098 <am_hal_gpio_state_write>:
    e098:	2831      	cmp	r0, #49	; 0x31
    e09a:	d81a      	bhi.n	e0d2 <am_hal_gpio_state_write+0x3a>
    e09c:	b570      	push	{r4, r5, r6, lr}
    e09e:	2905      	cmp	r1, #5
    e0a0:	b082      	sub	sp, #8
    e0a2:	460d      	mov	r5, r1
    e0a4:	d812      	bhi.n	e0cc <am_hal_gpio_state_write+0x34>
    e0a6:	f000 031f 	and.w	r3, r0, #31
    e0aa:	2201      	movs	r2, #1
    e0ac:	08c0      	lsrs	r0, r0, #3
    e0ae:	fa02 f603 	lsl.w	r6, r2, r3
    e0b2:	f000 0404 	and.w	r4, r0, #4
    e0b6:	f000 f871 	bl	e19c <am_hal_interrupt_master_disable>
    e0ba:	3d01      	subs	r5, #1
    e0bc:	9001      	str	r0, [sp, #4]
    e0be:	2d04      	cmp	r5, #4
    e0c0:	d821      	bhi.n	e106 <am_hal_gpio_state_write+0x6e>
    e0c2:	e8df f005 	tbb	[pc, r5]
    e0c6:	1512      	.short	0x1512
    e0c8:	1d1a      	.short	0x1d1a
    e0ca:	08          	.byte	0x08
    e0cb:	00          	.byte	0x00
    e0cc:	2006      	movs	r0, #6
    e0ce:	b002      	add	sp, #8
    e0d0:	bd70      	pop	{r4, r5, r6, pc}
    e0d2:	2005      	movs	r0, #5
    e0d4:	4770      	bx	lr
    e0d6:	4a0d      	ldr	r2, [pc, #52]	; (e10c <am_hal_gpio_state_write+0x74>)
    e0d8:	58a3      	ldr	r3, [r4, r2]
    e0da:	4073      	eors	r3, r6
    e0dc:	50a3      	str	r3, [r4, r2]
    e0de:	9801      	ldr	r0, [sp, #4]
    e0e0:	f000 f860 	bl	e1a4 <am_hal_interrupt_master_set>
    e0e4:	2000      	movs	r0, #0
    e0e6:	b002      	add	sp, #8
    e0e8:	bd70      	pop	{r4, r5, r6, pc}
    e0ea:	4b09      	ldr	r3, [pc, #36]	; (e110 <am_hal_gpio_state_write+0x78>)
    e0ec:	50e6      	str	r6, [r4, r3]
    e0ee:	e7f6      	b.n	e0de <am_hal_gpio_state_write+0x46>
    e0f0:	4a08      	ldr	r2, [pc, #32]	; (e114 <am_hal_gpio_state_write+0x7c>)
    e0f2:	58a3      	ldr	r3, [r4, r2]
    e0f4:	4073      	eors	r3, r6
    e0f6:	50a3      	str	r3, [r4, r2]
    e0f8:	e7f1      	b.n	e0de <am_hal_gpio_state_write+0x46>
    e0fa:	4b04      	ldr	r3, [pc, #16]	; (e10c <am_hal_gpio_state_write+0x74>)
    e0fc:	50e6      	str	r6, [r4, r3]
    e0fe:	e7ee      	b.n	e0de <am_hal_gpio_state_write+0x46>
    e100:	4b05      	ldr	r3, [pc, #20]	; (e118 <am_hal_gpio_state_write+0x80>)
    e102:	50e6      	str	r6, [r4, r3]
    e104:	e7eb      	b.n	e0de <am_hal_gpio_state_write+0x46>
    e106:	4b05      	ldr	r3, [pc, #20]	; (e11c <am_hal_gpio_state_write+0x84>)
    e108:	50e6      	str	r6, [r4, r3]
    e10a:	e7e8      	b.n	e0de <am_hal_gpio_state_write+0x46>
    e10c:	400100b4 	.word	0x400100b4
    e110:	40010090 	.word	0x40010090
    e114:	40010088 	.word	0x40010088
    e118:	400100a8 	.word	0x400100a8
    e11c:	40010098 	.word	0x40010098

0000e120 <am_hal_gpio_interrupt_enable>:
    e120:	b570      	push	{r4, r5, r6, lr}
    e122:	0c8c      	lsrs	r4, r1, #18
    e124:	04a4      	lsls	r4, r4, #18
    e126:	b082      	sub	sp, #8
    e128:	b9ac      	cbnz	r4, e156 <am_hal_gpio_interrupt_enable+0x36>
    e12a:	460d      	mov	r5, r1
    e12c:	4606      	mov	r6, r0
    e12e:	f000 f835 	bl	e19c <am_hal_interrupt_master_disable>
    e132:	4b0a      	ldr	r3, [pc, #40]	; (e15c <am_hal_gpio_interrupt_enable+0x3c>)
    e134:	9001      	str	r0, [sp, #4]
    e136:	f8d3 0200 	ldr.w	r0, [r3, #512]	; 0x200
    e13a:	4330      	orrs	r0, r6
    e13c:	f8c3 0200 	str.w	r0, [r3, #512]	; 0x200
    e140:	f8d3 1210 	ldr.w	r1, [r3, #528]	; 0x210
    e144:	430d      	orrs	r5, r1
    e146:	f8c3 5210 	str.w	r5, [r3, #528]	; 0x210
    e14a:	9801      	ldr	r0, [sp, #4]
    e14c:	f000 f82a 	bl	e1a4 <am_hal_interrupt_master_set>
    e150:	4620      	mov	r0, r4
    e152:	b002      	add	sp, #8
    e154:	bd70      	pop	{r4, r5, r6, pc}
    e156:	2005      	movs	r0, #5
    e158:	b002      	add	sp, #8
    e15a:	bd70      	pop	{r4, r5, r6, pc}
    e15c:	40010000 	.word	0x40010000

0000e160 <am_hal_gpio_interrupt_clear>:
    e160:	b570      	push	{r4, r5, r6, lr}
    e162:	0c8c      	lsrs	r4, r1, #18
    e164:	04a4      	lsls	r4, r4, #18
    e166:	b082      	sub	sp, #8
    e168:	b97c      	cbnz	r4, e18a <am_hal_gpio_interrupt_clear+0x2a>
    e16a:	460d      	mov	r5, r1
    e16c:	4606      	mov	r6, r0
    e16e:	f000 f815 	bl	e19c <am_hal_interrupt_master_disable>
    e172:	4b07      	ldr	r3, [pc, #28]	; (e190 <am_hal_gpio_interrupt_clear+0x30>)
    e174:	9001      	str	r0, [sp, #4]
    e176:	f8c3 6208 	str.w	r6, [r3, #520]	; 0x208
    e17a:	f8c3 5218 	str.w	r5, [r3, #536]	; 0x218
    e17e:	9801      	ldr	r0, [sp, #4]
    e180:	f000 f810 	bl	e1a4 <am_hal_interrupt_master_set>
    e184:	4620      	mov	r0, r4
    e186:	b002      	add	sp, #8
    e188:	bd70      	pop	{r4, r5, r6, pc}
    e18a:	2005      	movs	r0, #5
    e18c:	b002      	add	sp, #8
    e18e:	bd70      	pop	{r4, r5, r6, pc}
    e190:	40010000 	.word	0x40010000

0000e194 <am_hal_interrupt_master_enable>:
    e194:	f3ef 8010 	mrs	r0, PRIMASK
    e198:	b662      	cpsie	i
    e19a:	4770      	bx	lr

0000e19c <am_hal_interrupt_master_disable>:
    e19c:	f3ef 8010 	mrs	r0, PRIMASK
    e1a0:	b672      	cpsid	i
    e1a2:	4770      	bx	lr

0000e1a4 <am_hal_interrupt_master_set>:
    e1a4:	f380 8810 	msr	PRIMASK, r0
    e1a8:	4770      	bx	lr
    e1aa:	bf00      	nop

0000e1ac <am_hal_mcuctrl_info_get>:
    e1ac:	2900      	cmp	r1, #0
    e1ae:	f000 808f 	beq.w	e2d0 <am_hal_mcuctrl_info_get+0x124>
    e1b2:	2801      	cmp	r0, #1
    e1b4:	b430      	push	{r4, r5}
    e1b6:	d006      	beq.n	e1c6 <am_hal_mcuctrl_info_get+0x1a>
    e1b8:	2802      	cmp	r0, #2
    e1ba:	d06d      	beq.n	e298 <am_hal_mcuctrl_info_get+0xec>
    e1bc:	2800      	cmp	r0, #0
    e1be:	d055      	beq.n	e26c <am_hal_mcuctrl_info_get+0xc0>
    e1c0:	2006      	movs	r0, #6
    e1c2:	bc30      	pop	{r4, r5}
    e1c4:	4770      	bx	lr
    e1c6:	4a43      	ldr	r2, [pc, #268]	; (e2d4 <am_hal_mcuctrl_info_get+0x128>)
    e1c8:	4843      	ldr	r0, [pc, #268]	; (e2d8 <am_hal_mcuctrl_info_get+0x12c>)
    e1ca:	6813      	ldr	r3, [r2, #0]
    e1cc:	600b      	str	r3, [r1, #0]
    e1ce:	6854      	ldr	r4, [r2, #4]
    e1d0:	604c      	str	r4, [r1, #4]
    e1d2:	6894      	ldr	r4, [r2, #8]
    e1d4:	608c      	str	r4, [r1, #8]
    e1d6:	68d4      	ldr	r4, [r2, #12]
    e1d8:	60cc      	str	r4, [r1, #12]
    e1da:	f3c3 5503 	ubfx	r5, r3, #20, #4
    e1de:	6914      	ldr	r4, [r2, #16]
    e1e0:	610c      	str	r4, [r1, #16]
    e1e2:	f850 5025 	ldr.w	r5, [r0, r5, lsl #2]
    e1e6:	4c3d      	ldr	r4, [pc, #244]	; (e2dc <am_hal_mcuctrl_info_get+0x130>)
    e1e8:	6950      	ldr	r0, [r2, #20]
    e1ea:	6148      	str	r0, [r1, #20]
    e1ec:	f003 0201 	and.w	r2, r3, #1
    e1f0:	f3c3 4303 	ubfx	r3, r3, #16, #4
    e1f4:	e9c1 2506 	strd	r2, r5, [r1, #24]
    e1f8:	f854 3023 	ldr.w	r3, [r4, r3, lsl #2]
    e1fc:	4a38      	ldr	r2, [pc, #224]	; (e2e0 <am_hal_mcuctrl_info_get+0x134>)
    e1fe:	620b      	str	r3, [r1, #32]
    e200:	f8d2 30e0 	ldr.w	r3, [r2, #224]	; 0xe0
    e204:	f8d2 00e4 	ldr.w	r0, [r2, #228]	; 0xe4
    e208:	b2db      	uxtb	r3, r3
    e20a:	f000 000f 	and.w	r0, r0, #15
    e20e:	ea43 2300 	orr.w	r3, r3, r0, lsl #8
    e212:	624b      	str	r3, [r1, #36]	; 0x24
    e214:	f8d2 30e4 	ldr.w	r3, [r2, #228]	; 0xe4
    e218:	f8d2 00e8 	ldr.w	r0, [r2, #232]	; 0xe8
    e21c:	f3c3 1303 	ubfx	r3, r3, #4, #4
    e220:	f000 000f 	and.w	r0, r0, #15
    e224:	ea43 1300 	orr.w	r3, r3, r0, lsl #4
    e228:	628b      	str	r3, [r1, #40]	; 0x28
    e22a:	f8d2 30e8 	ldr.w	r3, [r2, #232]	; 0xe8
    e22e:	f8d2 00ec 	ldr.w	r0, [r2, #236]	; 0xec
    e232:	f003 03f0 	and.w	r3, r3, #240	; 0xf0
    e236:	f3c0 1003 	ubfx	r0, r0, #4, #4
    e23a:	4303      	orrs	r3, r0
    e23c:	62cb      	str	r3, [r1, #44]	; 0x2c
    e23e:	f8d2 40fc 	ldr.w	r4, [r2, #252]	; 0xfc
    e242:	f8d2 30f8 	ldr.w	r3, [r2, #248]	; 0xf8
    e246:	f8d2 00f4 	ldr.w	r0, [r2, #244]	; 0xf4
    e24a:	f8d2 20f0 	ldr.w	r2, [r2, #240]	; 0xf0
    e24e:	b2db      	uxtb	r3, r3
    e250:	041b      	lsls	r3, r3, #16
    e252:	ea43 6304 	orr.w	r3, r3, r4, lsl #24
    e256:	fa5f fc82 	uxtb.w	ip, r2
    e25a:	ea43 030c 	orr.w	r3, r3, ip
    e25e:	b2c2      	uxtb	r2, r0
    e260:	ea43 2302 	orr.w	r3, r3, r2, lsl #8
    e264:	630b      	str	r3, [r1, #48]	; 0x30
    e266:	2000      	movs	r0, #0
    e268:	bc30      	pop	{r4, r5}
    e26a:	4770      	bx	lr
    e26c:	4a19      	ldr	r2, [pc, #100]	; (e2d4 <am_hal_mcuctrl_info_get+0x128>)
    e26e:	6993      	ldr	r3, [r2, #24]
    e270:	f3c3 1480 	ubfx	r4, r3, #6, #1
    e274:	700c      	strb	r4, [r1, #0]
    e276:	f8d2 41a0 	ldr.w	r4, [r2, #416]	; 0x1a0
    e27a:	f3c3 0380 	ubfx	r3, r3, #2, #1
    e27e:	704b      	strb	r3, [r1, #1]
    e280:	f3c4 6381 	ubfx	r3, r4, #26, #2
    e284:	710b      	strb	r3, [r1, #4]
    e286:	6953      	ldr	r3, [r2, #20]
    e288:	f3c3 0240 	ubfx	r2, r3, #1, #1
    e28c:	f003 0301 	and.w	r3, r3, #1
    e290:	bc30      	pop	{r4, r5}
    e292:	708a      	strb	r2, [r1, #2]
    e294:	70cb      	strb	r3, [r1, #3]
    e296:	4770      	bx	lr
    e298:	4a0e      	ldr	r2, [pc, #56]	; (e2d4 <am_hal_mcuctrl_info_get+0x128>)
    e29a:	6848      	ldr	r0, [r1, #4]
    e29c:	f8d2 31cc 	ldr.w	r3, [r2, #460]	; 0x1cc
    e2a0:	f003 0401 	and.w	r4, r3, #1
    e2a4:	700c      	strb	r4, [r1, #0]
    e2a6:	f3c3 0440 	ubfx	r4, r3, #1, #1
    e2aa:	720c      	strb	r4, [r1, #8]
    e2ac:	f8d2 41c4 	ldr.w	r4, [r2, #452]	; 0x1c4
    e2b0:	60cc      	str	r4, [r1, #12]
    e2b2:	f8d2 41c0 	ldr.w	r4, [r2, #448]	; 0x1c0
    e2b6:	4320      	orrs	r0, r4
    e2b8:	f3c3 0380 	ubfx	r3, r3, #2, #1
    e2bc:	6048      	str	r0, [r1, #4]
    e2be:	f8d2 21c8 	ldr.w	r2, [r2, #456]	; 0x1c8
    e2c2:	740b      	strb	r3, [r1, #16]
    e2c4:	694b      	ldr	r3, [r1, #20]
    e2c6:	4313      	orrs	r3, r2
    e2c8:	2000      	movs	r0, #0
    e2ca:	bc30      	pop	{r4, r5}
    e2cc:	614b      	str	r3, [r1, #20]
    e2ce:	4770      	bx	lr
    e2d0:	2006      	movs	r0, #6
    e2d2:	4770      	bx	lr
    e2d4:	40020000 	.word	0x40020000
    e2d8:	000167c8 	.word	0x000167c8
    e2dc:	00016808 	.word	0x00016808
    e2e0:	f0000f00 	.word	0xf0000f00

0000e2e4 <am_hal_pwrctrl_periph_enable>:
    e2e4:	b5f0      	push	{r4, r5, r6, r7, lr}
    e2e6:	b083      	sub	sp, #12
    e2e8:	4604      	mov	r4, r0
    e2ea:	f7ff ff57 	bl	e19c <am_hal_interrupt_master_disable>
    e2ee:	eb04 0444 	add.w	r4, r4, r4, lsl #1
    e2f2:	4e15      	ldr	r6, [pc, #84]	; (e348 <am_hal_pwrctrl_periph_enable+0x64>)
    e2f4:	4d15      	ldr	r5, [pc, #84]	; (e34c <am_hal_pwrctrl_periph_enable+0x68>)
    e2f6:	9000      	str	r0, [sp, #0]
    e2f8:	00a4      	lsls	r4, r4, #2
    e2fa:	68b3      	ldr	r3, [r6, #8]
    e2fc:	592f      	ldr	r7, [r5, r4]
    e2fe:	433b      	orrs	r3, r7
    e300:	60b3      	str	r3, [r6, #8]
    e302:	9800      	ldr	r0, [sp, #0]
    e304:	442c      	add	r4, r5
    e306:	f7ff ff4d 	bl	e1a4 <am_hal_interrupt_master_set>
    e30a:	20a0      	movs	r0, #160	; 0xa0
    e30c:	f7ff fd3e 	bl	dd8c <am_hal_flash_delay>
    e310:	69b3      	ldr	r3, [r6, #24]
    e312:	6864      	ldr	r4, [r4, #4]
    e314:	4223      	tst	r3, r4
    e316:	d103      	bne.n	e320 <am_hal_pwrctrl_periph_enable+0x3c>
    e318:	20a0      	movs	r0, #160	; 0xa0
    e31a:	f7ff fd37 	bl	dd8c <am_hal_flash_delay>
    e31e:	69b3      	ldr	r3, [r6, #24]
    e320:	4d09      	ldr	r5, [pc, #36]	; (e348 <am_hal_pwrctrl_periph_enable+0x64>)
    e322:	69ab      	ldr	r3, [r5, #24]
    e324:	4223      	tst	r3, r4
    e326:	d002      	beq.n	e32e <am_hal_pwrctrl_periph_enable+0x4a>
    e328:	2000      	movs	r0, #0
    e32a:	b003      	add	sp, #12
    e32c:	bdf0      	pop	{r4, r5, r6, r7, pc}
    e32e:	f7ff ff35 	bl	e19c <am_hal_interrupt_master_disable>
    e332:	9001      	str	r0, [sp, #4]
    e334:	68ab      	ldr	r3, [r5, #8]
    e336:	ea23 0707 	bic.w	r7, r3, r7
    e33a:	60af      	str	r7, [r5, #8]
    e33c:	9801      	ldr	r0, [sp, #4]
    e33e:	f7ff ff31 	bl	e1a4 <am_hal_interrupt_master_set>
    e342:	2001      	movs	r0, #1
    e344:	b003      	add	sp, #12
    e346:	bdf0      	pop	{r4, r5, r6, r7, pc}
    e348:	40021000 	.word	0x40021000
    e34c:	000169f8 	.word	0x000169f8

0000e350 <am_hal_pwrctrl_memory_deepsleep_powerdown>:
    e350:	2811      	cmp	r0, #17
    e352:	d80b      	bhi.n	e36c <am_hal_pwrctrl_memory_deepsleep_powerdown+0x1c>
    e354:	4b06      	ldr	r3, [pc, #24]	; (e370 <am_hal_pwrctrl_memory_deepsleep_powerdown+0x20>)
    e356:	4a07      	ldr	r2, [pc, #28]	; (e374 <am_hal_pwrctrl_memory_deepsleep_powerdown+0x24>)
    e358:	eb00 0040 	add.w	r0, r0, r0, lsl #1
    e35c:	eb03 00c0 	add.w	r0, r3, r0, lsl #3
    e360:	68d3      	ldr	r3, [r2, #12]
    e362:	6941      	ldr	r1, [r0, #20]
    e364:	430b      	orrs	r3, r1
    e366:	2000      	movs	r0, #0
    e368:	60d3      	str	r3, [r2, #12]
    e36a:	4770      	bx	lr
    e36c:	2001      	movs	r0, #1
    e36e:	4770      	bx	lr
    e370:	00016848 	.word	0x00016848
    e374:	40021000 	.word	0x40021000

0000e378 <am_hal_pwrctrl_memory_deepsleep_retain>:
    e378:	2811      	cmp	r0, #17
    e37a:	d80c      	bhi.n	e396 <am_hal_pwrctrl_memory_deepsleep_retain+0x1e>
    e37c:	4b07      	ldr	r3, [pc, #28]	; (e39c <am_hal_pwrctrl_memory_deepsleep_retain+0x24>)
    e37e:	4a08      	ldr	r2, [pc, #32]	; (e3a0 <am_hal_pwrctrl_memory_deepsleep_retain+0x28>)
    e380:	eb00 0040 	add.w	r0, r0, r0, lsl #1
    e384:	eb03 00c0 	add.w	r0, r3, r0, lsl #3
    e388:	68d3      	ldr	r3, [r2, #12]
    e38a:	6941      	ldr	r1, [r0, #20]
    e38c:	ea23 0301 	bic.w	r3, r3, r1
    e390:	2000      	movs	r0, #0
    e392:	60d3      	str	r3, [r2, #12]
    e394:	4770      	bx	lr
    e396:	2001      	movs	r0, #1
    e398:	4770      	bx	lr
    e39a:	bf00      	nop
    e39c:	00016848 	.word	0x00016848
    e3a0:	40021000 	.word	0x40021000

0000e3a4 <am_hal_pwrctrl_low_power_init>:
    e3a4:	b530      	push	{r4, r5, lr}
    e3a6:	4b5f      	ldr	r3, [pc, #380]	; (e524 <am_hal_pwrctrl_low_power_init+0x180>)
    e3a8:	681a      	ldr	r2, [r3, #0]
    e3aa:	b085      	sub	sp, #20
    e3ac:	b912      	cbnz	r2, e3b4 <am_hal_pwrctrl_low_power_init+0x10>
    e3ae:	4a5e      	ldr	r2, [pc, #376]	; (e528 <am_hal_pwrctrl_low_power_init+0x184>)
    e3b0:	6812      	ldr	r2, [r2, #0]
    e3b2:	601a      	str	r2, [r3, #0]
    e3b4:	4b5d      	ldr	r3, [pc, #372]	; (e52c <am_hal_pwrctrl_low_power_init+0x188>)
    e3b6:	68db      	ldr	r3, [r3, #12]
    e3b8:	b2db      	uxtb	r3, r3
    e3ba:	2b12      	cmp	r3, #18
    e3bc:	d104      	bne.n	e3c8 <am_hal_pwrctrl_low_power_init+0x24>
    e3be:	4b5c      	ldr	r3, [pc, #368]	; (e530 <am_hal_pwrctrl_low_power_init+0x18c>)
    e3c0:	685b      	ldr	r3, [r3, #4]
    e3c2:	07da      	lsls	r2, r3, #31
    e3c4:	f100 8088 	bmi.w	e4d8 <am_hal_pwrctrl_low_power_init+0x134>
    e3c8:	4b58      	ldr	r3, [pc, #352]	; (e52c <am_hal_pwrctrl_low_power_init+0x188>)
    e3ca:	68da      	ldr	r2, [r3, #12]
    e3cc:	b2d2      	uxtb	r2, r2
    e3ce:	2a20      	cmp	r2, #32
    e3d0:	d934      	bls.n	e43c <am_hal_pwrctrl_low_power_init+0x98>
    e3d2:	f8d3 2354 	ldr.w	r2, [r3, #852]	; 0x354
    e3d6:	2002      	movs	r0, #2
    e3d8:	f360 4213 	bfi	r2, r0, #16, #4
    e3dc:	f8c3 2354 	str.w	r2, [r3, #852]	; 0x354
    e3e0:	f8d3 1354 	ldr.w	r1, [r3, #852]	; 0x354
    e3e4:	2203      	movs	r2, #3
    e3e6:	f362 5117 	bfi	r1, r2, #20, #4
    e3ea:	f8c3 1354 	str.w	r1, [r3, #852]	; 0x354
    e3ee:	f8d3 1358 	ldr.w	r1, [r3, #856]	; 0x358
    e3f2:	2405      	movs	r4, #5
    e3f4:	f364 0103 	bfi	r1, r4, #0, #4
    e3f8:	f8c3 1358 	str.w	r1, [r3, #856]	; 0x358
    e3fc:	f8d3 1358 	ldr.w	r1, [r3, #856]	; 0x358
    e400:	f360 1107 	bfi	r1, r0, #4, #4
    e404:	f8c3 1358 	str.w	r1, [r3, #856]	; 0x358
    e408:	f8d3 1358 	ldr.w	r1, [r3, #856]	; 0x358
    e40c:	2406      	movs	r4, #6
    e40e:	f364 210b 	bfi	r1, r4, #8, #4
    e412:	f8c3 1358 	str.w	r1, [r3, #856]	; 0x358
    e416:	f8d3 1358 	ldr.w	r1, [r3, #856]	; 0x358
    e41a:	2001      	movs	r0, #1
    e41c:	f360 310f 	bfi	r1, r0, #12, #4
    e420:	f8c3 1358 	str.w	r1, [r3, #856]	; 0x358
    e424:	f8d3 1358 	ldr.w	r1, [r3, #856]	; 0x358
    e428:	f362 61de 	bfi	r1, r2, #27, #4
    e42c:	f8c3 1358 	str.w	r1, [r3, #856]	; 0x358
    e430:	f8d3 135c 	ldr.w	r1, [r3, #860]	; 0x35c
    e434:	f362 0103 	bfi	r1, r2, #0, #4
    e438:	f8c3 135c 	str.w	r1, [r3, #860]	; 0x35c
    e43c:	4a3b      	ldr	r2, [pc, #236]	; (e52c <am_hal_pwrctrl_low_power_init+0x188>)
    e43e:	68d3      	ldr	r3, [r2, #12]
    e440:	b2db      	uxtb	r3, r3
    e442:	2b11      	cmp	r3, #17
    e444:	d905      	bls.n	e452 <am_hal_pwrctrl_low_power_init+0xae>
    e446:	f8d2 335c 	ldr.w	r3, [r2, #860]	; 0x35c
    e44a:	f36f 6318 	bfc	r3, #24, #1
    e44e:	f8c2 335c 	str.w	r3, [r2, #860]	; 0x35c
    e452:	2100      	movs	r1, #0
    e454:	200c      	movs	r0, #12
    e456:	f7ff fa83 	bl	d960 <am_hal_cachectrl_control>
    e45a:	4b35      	ldr	r3, [pc, #212]	; (e530 <am_hal_pwrctrl_low_power_init+0x18c>)
    e45c:	699b      	ldr	r3, [r3, #24]
    e45e:	f3c3 2500 	ubfx	r5, r3, #8, #1
    e462:	05db      	lsls	r3, r3, #23
    e464:	d420      	bmi.n	e4a8 <am_hal_pwrctrl_low_power_init+0x104>
    e466:	4c31      	ldr	r4, [pc, #196]	; (e52c <am_hal_pwrctrl_low_power_init+0x188>)
    e468:	68e3      	ldr	r3, [r4, #12]
    e46a:	b2db      	uxtb	r3, r3
    e46c:	2b11      	cmp	r3, #17
    e46e:	d83a      	bhi.n	e4e6 <am_hal_pwrctrl_low_power_init+0x142>
    e470:	4c2e      	ldr	r4, [pc, #184]	; (e52c <am_hal_pwrctrl_low_power_init+0x188>)
    e472:	4930      	ldr	r1, [pc, #192]	; (e534 <am_hal_pwrctrl_low_power_init+0x190>)
    e474:	69a2      	ldr	r2, [r4, #24]
    e476:	2001      	movs	r0, #1
    e478:	4302      	orrs	r2, r0
    e47a:	2307      	movs	r3, #7
    e47c:	61a2      	str	r2, [r4, #24]
    e47e:	9000      	str	r0, [sp, #0]
    e480:	461a      	mov	r2, r3
    e482:	f242 7010 	movw	r0, #10000	; 0x2710
    e486:	f7ff fc91 	bl	ddac <am_hal_flash_delay_status_check>
    e48a:	2800      	cmp	r0, #0
    e48c:	d146      	bne.n	e51c <am_hal_pwrctrl_low_power_init+0x178>
    e48e:	4b28      	ldr	r3, [pc, #160]	; (e530 <am_hal_pwrctrl_low_power_init+0x18c>)
    e490:	681a      	ldr	r2, [r3, #0]
    e492:	f042 0201 	orr.w	r2, r2, #1
    e496:	601a      	str	r2, [r3, #0]
    e498:	6a5a      	ldr	r2, [r3, #36]	; 0x24
    e49a:	f042 0240 	orr.w	r2, r2, #64	; 0x40
    e49e:	625a      	str	r2, [r3, #36]	; 0x24
    e4a0:	68e3      	ldr	r3, [r4, #12]
    e4a2:	b2db      	uxtb	r3, r3
    e4a4:	2b11      	cmp	r3, #17
    e4a6:	d002      	beq.n	e4ae <am_hal_pwrctrl_low_power_init+0x10a>
    e4a8:	2000      	movs	r0, #0
    e4aa:	b005      	add	sp, #20
    e4ac:	bd30      	pop	{r4, r5, pc}
    e4ae:	f8d4 335c 	ldr.w	r3, [r4, #860]	; 0x35c
    e4b2:	f360 5356 	bfi	r3, r0, #21, #2
    e4b6:	f8c4 335c 	str.w	r3, [r4, #860]	; 0x35c
    e4ba:	f8d4 3368 	ldr.w	r3, [r4, #872]	; 0x368
    e4be:	220f      	movs	r2, #15
    e4c0:	f362 138b 	bfi	r3, r2, #6, #6
    e4c4:	f8c4 3368 	str.w	r3, [r4, #872]	; 0x368
    e4c8:	f8d4 3368 	ldr.w	r3, [r4, #872]	; 0x368
    e4cc:	f362 0305 	bfi	r3, r2, #0, #6
    e4d0:	f8c4 3368 	str.w	r3, [r4, #872]	; 0x368
    e4d4:	b005      	add	sp, #20
    e4d6:	bd30      	pop	{r4, r5, pc}
    e4d8:	200d      	movs	r0, #13
    e4da:	f7ff ff03 	bl	e2e4 <am_hal_pwrctrl_periph_enable>
    e4de:	2800      	cmp	r0, #0
    e4e0:	f43f af72 	beq.w	e3c8 <am_hal_pwrctrl_low_power_init+0x24>
    e4e4:	e7e1      	b.n	e4aa <am_hal_pwrctrl_low_power_init+0x106>
    e4e6:	f7ff fe59 	bl	e19c <am_hal_interrupt_master_disable>
    e4ea:	9003      	str	r0, [sp, #12]
    e4ec:	f8d4 3368 	ldr.w	r3, [r4, #872]	; 0x368
    e4f0:	2219      	movs	r2, #25
    e4f2:	f362 138b 	bfi	r3, r2, #6, #6
    e4f6:	f8c4 3368 	str.w	r3, [r4, #872]	; 0x368
    e4fa:	f8d4 2368 	ldr.w	r2, [r4, #872]	; 0x368
    e4fe:	210c      	movs	r1, #12
    e500:	f04f 2340 	mov.w	r3, #1073758208	; 0x40004000
    e504:	f361 0205 	bfi	r2, r1, #0, #6
    e508:	f8c4 2368 	str.w	r2, [r4, #872]	; 0x368
    e50c:	6bda      	ldr	r2, [r3, #60]	; 0x3c
    e50e:	f365 5296 	bfi	r2, r5, #22, #1
    e512:	63da      	str	r2, [r3, #60]	; 0x3c
    e514:	9803      	ldr	r0, [sp, #12]
    e516:	f7ff fe45 	bl	e1a4 <am_hal_interrupt_master_set>
    e51a:	e7a9      	b.n	e470 <am_hal_pwrctrl_low_power_init+0xcc>
    e51c:	2004      	movs	r0, #4
    e51e:	b005      	add	sp, #20
    e520:	bd30      	pop	{r4, r5, pc}
    e522:	bf00      	nop
    e524:	1004eff4 	.word	0x1004eff4
    e528:	4ffff000 	.word	0x4ffff000
    e52c:	40020000 	.word	0x40020000
    e530:	40021000 	.word	0x40021000
    e534:	40020018 	.word	0x40020018

0000e538 <am_hal_rtc_osc_disable>:
    e538:	4a02      	ldr	r2, [pc, #8]	; (e544 <am_hal_rtc_osc_disable+0xc>)
    e53a:	6d13      	ldr	r3, [r2, #80]	; 0x50
    e53c:	f043 0310 	orr.w	r3, r3, #16
    e540:	6513      	str	r3, [r2, #80]	; 0x50
    e542:	4770      	bx	lr
    e544:	40004200 	.word	0x40004200

0000e548 <am_hal_stimer_counter_get>:
    e548:	b500      	push	{lr}
    e54a:	b085      	sub	sp, #20
    e54c:	4805      	ldr	r0, [pc, #20]	; (e564 <am_hal_stimer_counter_get+0x1c>)
    e54e:	a901      	add	r1, sp, #4
    e550:	f000 f8d8 	bl	e704 <am_hal_triple_read>
    e554:	e9dd 3001 	ldrd	r3, r0, [sp, #4]
    e558:	4283      	cmp	r3, r0
    e55a:	bf18      	it	ne
    e55c:	9803      	ldrne	r0, [sp, #12]
    e55e:	b005      	add	sp, #20
    e560:	f85d fb04 	ldr.w	pc, [sp], #4
    e564:	40008144 	.word	0x40008144

0000e568 <am_hal_stimer_compare_delta_set>:
    e568:	2807      	cmp	r0, #7
    e56a:	d900      	bls.n	e56e <am_hal_stimer_compare_delta_set+0x6>
    e56c:	4770      	bx	lr
    e56e:	b530      	push	{r4, r5, lr}
    e570:	b083      	sub	sp, #12
    e572:	460c      	mov	r4, r1
    e574:	4605      	mov	r5, r0
    e576:	f7ff fe11 	bl	e19c <am_hal_interrupt_master_disable>
    e57a:	4a27      	ldr	r2, [pc, #156]	; (e618 <am_hal_stimer_compare_delta_set+0xb0>)
    e57c:	9001      	str	r0, [sp, #4]
    e57e:	4b27      	ldr	r3, [pc, #156]	; (e61c <am_hal_stimer_compare_delta_set+0xb4>)
    e580:	f8d2 1140 	ldr.w	r1, [r2, #320]	; 0x140
    e584:	f8d2 0140 	ldr.w	r0, [r2, #320]	; 0x140
    e588:	f44f 7c80 	mov.w	ip, #256	; 0x100
    e58c:	442b      	add	r3, r5
    e58e:	fa0c f505 	lsl.w	r5, ip, r5
    e592:	009b      	lsls	r3, r3, #2
    e594:	ea20 0005 	bic.w	r0, r0, r5
    e598:	f8c2 0140 	str.w	r0, [r2, #320]	; 0x140
    e59c:	f8d2 2144 	ldr.w	r2, [r2, #324]	; 0x144
    e5a0:	601c      	str	r4, [r3, #0]
    e5a2:	6818      	ldr	r0, [r3, #0]
    e5a4:	4422      	add	r2, r4
    e5a6:	eba0 0c02 	sub.w	ip, r0, r2
    e5aa:	f1bc 0f00 	cmp.w	ip, #0
    e5ae:	db03      	blt.n	e5b8 <am_hal_stimer_compare_delta_set+0x50>
    e5b0:	320a      	adds	r2, #10
    e5b2:	1a82      	subs	r2, r0, r2
    e5b4:	2a00      	cmp	r2, #0
    e5b6:	dd22      	ble.n	e5fe <am_hal_stimer_compare_delta_set+0x96>
    e5b8:	4a17      	ldr	r2, [pc, #92]	; (e618 <am_hal_stimer_compare_delta_set+0xb0>)
    e5ba:	f8d2 2144 	ldr.w	r2, [r2, #324]	; 0x144
    e5be:	601c      	str	r4, [r3, #0]
    e5c0:	6818      	ldr	r0, [r3, #0]
    e5c2:	4422      	add	r2, r4
    e5c4:	eba0 0c02 	sub.w	ip, r0, r2
    e5c8:	f1bc 0f00 	cmp.w	ip, #0
    e5cc:	db03      	blt.n	e5d6 <am_hal_stimer_compare_delta_set+0x6e>
    e5ce:	320a      	adds	r2, #10
    e5d0:	1a82      	subs	r2, r0, r2
    e5d2:	2a00      	cmp	r2, #0
    e5d4:	dd13      	ble.n	e5fe <am_hal_stimer_compare_delta_set+0x96>
    e5d6:	4a10      	ldr	r2, [pc, #64]	; (e618 <am_hal_stimer_compare_delta_set+0xb0>)
    e5d8:	f8d2 2144 	ldr.w	r2, [r2, #324]	; 0x144
    e5dc:	601c      	str	r4, [r3, #0]
    e5de:	6818      	ldr	r0, [r3, #0]
    e5e0:	4422      	add	r2, r4
    e5e2:	eba0 0c02 	sub.w	ip, r0, r2
    e5e6:	f1bc 0f00 	cmp.w	ip, #0
    e5ea:	db03      	blt.n	e5f4 <am_hal_stimer_compare_delta_set+0x8c>
    e5ec:	320a      	adds	r2, #10
    e5ee:	1a82      	subs	r2, r0, r2
    e5f0:	2a00      	cmp	r2, #0
    e5f2:	dd04      	ble.n	e5fe <am_hal_stimer_compare_delta_set+0x96>
    e5f4:	4a08      	ldr	r2, [pc, #32]	; (e618 <am_hal_stimer_compare_delta_set+0xb0>)
    e5f6:	f8d2 2144 	ldr.w	r2, [r2, #324]	; 0x144
    e5fa:	601c      	str	r4, [r3, #0]
    e5fc:	681b      	ldr	r3, [r3, #0]
    e5fe:	4b06      	ldr	r3, [pc, #24]	; (e618 <am_hal_stimer_compare_delta_set+0xb0>)
    e600:	f8d3 2140 	ldr.w	r2, [r3, #320]	; 0x140
    e604:	400d      	ands	r5, r1
    e606:	4315      	orrs	r5, r2
    e608:	f8c3 5140 	str.w	r5, [r3, #320]	; 0x140
    e60c:	9801      	ldr	r0, [sp, #4]
    e60e:	b003      	add	sp, #12
    e610:	e8bd 4030 	ldmia.w	sp!, {r4, r5, lr}
    e614:	f7ff bdc6 	b.w	e1a4 <am_hal_interrupt_master_set>
    e618:	40008000 	.word	0x40008000
    e61c:	10002054 	.word	0x10002054

0000e620 <am_hal_stimer_int_clear>:
    e620:	4b01      	ldr	r3, [pc, #4]	; (e628 <am_hal_stimer_int_clear+0x8>)
    e622:	f8c3 0308 	str.w	r0, [r3, #776]	; 0x308
    e626:	4770      	bx	lr
    e628:	40008000 	.word	0x40008000

0000e62c <am_hal_stimer_int_status_get>:
    e62c:	4a04      	ldr	r2, [pc, #16]	; (e640 <am_hal_stimer_int_status_get+0x14>)
    e62e:	f8d2 3304 	ldr.w	r3, [r2, #772]	; 0x304
    e632:	b110      	cbz	r0, e63a <am_hal_stimer_int_status_get+0xe>
    e634:	f8d2 2300 	ldr.w	r2, [r2, #768]	; 0x300
    e638:	4013      	ands	r3, r2
    e63a:	4618      	mov	r0, r3
    e63c:	4770      	bx	lr
    e63e:	bf00      	nop
    e640:	40008000 	.word	0x40008000

0000e644 <am_hal_sysctrl_sleep>:
    e644:	b530      	push	{r4, r5, lr}
    e646:	b083      	sub	sp, #12
    e648:	4604      	mov	r4, r0
    e64a:	f7ff fda7 	bl	e19c <am_hal_interrupt_master_disable>
    e64e:	4a25      	ldr	r2, [pc, #148]	; (e6e4 <am_hal_sysctrl_sleep+0xa0>)
    e650:	9001      	str	r0, [sp, #4]
    e652:	6813      	ldr	r3, [r2, #0]
    e654:	3301      	adds	r3, #1
    e656:	6013      	str	r3, [r2, #0]
    e658:	b124      	cbz	r4, e664 <am_hal_sysctrl_sleep+0x20>
    e65a:	4b23      	ldr	r3, [pc, #140]	; (e6e8 <am_hal_sysctrl_sleep+0xa4>)
    e65c:	f8d3 3250 	ldr.w	r3, [r3, #592]	; 0x250
    e660:	07db      	lsls	r3, r3, #31
    e662:	d513      	bpl.n	e68c <am_hal_sysctrl_sleep+0x48>
    e664:	4a21      	ldr	r2, [pc, #132]	; (e6ec <am_hal_sysctrl_sleep+0xa8>)
    e666:	6913      	ldr	r3, [r2, #16]
    e668:	f023 0304 	bic.w	r3, r3, #4
    e66c:	6113      	str	r3, [r2, #16]
    e66e:	f3bf 8f4f 	dsb	sy
    e672:	4a1f      	ldr	r2, [pc, #124]	; (e6f0 <am_hal_sysctrl_sleep+0xac>)
    e674:	4b1f      	ldr	r3, [pc, #124]	; (e6f4 <am_hal_sysctrl_sleep+0xb0>)
    e676:	6812      	ldr	r2, [r2, #0]
    e678:	601a      	str	r2, [r3, #0]
    e67a:	bf30      	wfi
    e67c:	f3bf 8f6f 	isb	sy
    e680:	9801      	ldr	r0, [sp, #4]
    e682:	b003      	add	sp, #12
    e684:	e8bd 4030 	ldmia.w	sp!, {r4, r5, lr}
    e688:	f7ff bd8c 	b.w	e1a4 <am_hal_interrupt_master_set>
    e68c:	4b1a      	ldr	r3, [pc, #104]	; (e6f8 <am_hal_sysctrl_sleep+0xb4>)
    e68e:	681a      	ldr	r2, [r3, #0]
    e690:	b912      	cbnz	r2, e698 <am_hal_sysctrl_sleep+0x54>
    e692:	4a1a      	ldr	r2, [pc, #104]	; (e6fc <am_hal_sysctrl_sleep+0xb8>)
    e694:	6812      	ldr	r2, [r2, #0]
    e696:	601a      	str	r2, [r3, #0]
    e698:	4d13      	ldr	r5, [pc, #76]	; (e6e8 <am_hal_sysctrl_sleep+0xa4>)
    e69a:	f8d5 4350 	ldr.w	r4, [r5, #848]	; 0x350
    e69e:	f3c4 4305 	ubfx	r3, r4, #16, #6
    e6a2:	3309      	adds	r3, #9
    e6a4:	2b3f      	cmp	r3, #63	; 0x3f
    e6a6:	bf28      	it	cs
    e6a8:	233f      	movcs	r3, #63	; 0x3f
    e6aa:	461a      	mov	r2, r3
    e6ac:	4b14      	ldr	r3, [pc, #80]	; (e700 <am_hal_sysctrl_sleep+0xbc>)
    e6ae:	f3c4 0109 	ubfx	r1, r4, #0, #10
    e6b2:	f240 30ff 	movw	r0, #1023	; 0x3ff
    e6b6:	3118      	adds	r1, #24
    e6b8:	4023      	ands	r3, r4
    e6ba:	4281      	cmp	r1, r0
    e6bc:	bf94      	ite	ls
    e6be:	430b      	orrls	r3, r1
    e6c0:	4303      	orrhi	r3, r0
    e6c2:	ea43 4302 	orr.w	r3, r3, r2, lsl #16
    e6c6:	f8c5 3350 	str.w	r3, [r5, #848]	; 0x350
    e6ca:	f44f 70a0 	mov.w	r0, #320	; 0x140
    e6ce:	f7ff fb5d 	bl	dd8c <am_hal_flash_delay>
    e6d2:	4a06      	ldr	r2, [pc, #24]	; (e6ec <am_hal_sysctrl_sleep+0xa8>)
    e6d4:	f8c5 4350 	str.w	r4, [r5, #848]	; 0x350
    e6d8:	6913      	ldr	r3, [r2, #16]
    e6da:	f043 0304 	orr.w	r3, r3, #4
    e6de:	6113      	str	r3, [r2, #16]
    e6e0:	e7c5      	b.n	e66e <am_hal_sysctrl_sleep+0x2a>
    e6e2:	bf00      	nop
    e6e4:	1004eff8 	.word	0x1004eff8
    e6e8:	40020000 	.word	0x40020000
    e6ec:	e000ed00 	.word	0xe000ed00
    e6f0:	5fff0000 	.word	0x5fff0000
    e6f4:	1004effc 	.word	0x1004effc
    e6f8:	1004eff4 	.word	0x1004eff4
    e6fc:	4ffff000 	.word	0x4ffff000
    e700:	ffc0fc00 	.word	0xffc0fc00

0000e704 <am_hal_triple_read>:
    e704:	b412      	push	{r1, r4}
    e706:	f3ef 8410 	mrs	r4, PRIMASK
    e70a:	b672      	cpsid	i
    e70c:	6801      	ldr	r1, [r0, #0]
    e70e:	6802      	ldr	r2, [r0, #0]
    e710:	6803      	ldr	r3, [r0, #0]
    e712:	f384 8810 	msr	PRIMASK, r4
    e716:	bc11      	pop	{r0, r4}
    e718:	6001      	str	r1, [r0, #0]
    e71a:	6042      	str	r2, [r0, #4]
    e71c:	6083      	str	r3, [r0, #8]
    e71e:	4770      	bx	lr

0000e720 <g_deepsleep_button0>:
    e720:	1003 0000                                   ....

0000e724 <bvp_sensor>:
    e724:	61de 0002 6705 0002 643b 0002 64e8 0002     .a...g..;d...d..
    e734:	6881 0002 6ab0 0002 63dc 0002 620c 0002     .h...j...c...b..
    e744:	6e14 0002 5b28 0002 616a 0002 6736 0002     .n..([..ja..6g..
    e754:	61ff 0002 6a3d 0002 6f3b 0002 686e 0002     .a..=j..;o..nh..
    e764:	675b 0002 6256 0002 6008 0002 668f 0002     [g..Vb...`...f..
    e774:	65a9 0002 6b9b 0002 69ce 0002 63b7 0002     .e...k...i...c..
    e784:	658e 0002 6d6f 0002 6753 0002 5d41 0002     .e..om..Sg..A]..
    e794:	67be 0002 5b3b 0002 6197 0002 660b 0002     .g..;[...a...f..
    e7a4:	6472 0002 6661 0002 6718 0002 635e 0002     rd..af...g..^c..
    e7b4:	699a 0002 610f 0002 6f5d 0002 6889 0002     .i...a..]o...h..
    e7c4:	692e 0002 62e4 0002 6bce 0002 5ebe 0002     .i...b...k...^..
    e7d4:	6b13 0002 6471 0002 69f4 0002 62ce 0002     .k..qd...i...b..
    e7e4:	6290 0002 61a0 0002 68c5 0002 6988 0002     .b...a...h...i..
    e7f4:	6563 0002 6ca4 0002 6775 0002 666e 0002     ce...l..ug..nf..
    e804:	632d 0002 6706 0002 68d5 0002 666b 0002     -c...g...h..kf..
    e814:	670e 0002 6802 0002 656d 0002 68e2 0002     .g...h..me...h..
    e824:	6c7b 0002 6cbe 0002 6072 0002 6bbf 0002     {l...l..r`...k..
    e834:	689a 0002 60f7 0002 6835 0002 676e 0002     .h...`..5h..ng..
    e844:	67aa 0002 61db 0002 6041 0002 60c5 0002     .g...a..A`...`..
    e854:	66f7 0002 66f7 0002 611c 0002 6100 0002     .f...f...a...a..
    e864:	61db 0002 6da1 0002 629a 0002 66ae 0002     .a...m...b...f..
    e874:	69c2 0002 6467 0002 69f2 0002 61ad 0002     .i..gd...i...a..
    e884:	6507 0002 5b3a 0002 62c2 0002 67c0 0002     .e..:[...b...g..
    e894:	66f8 0002 679c 0002 6e2f 0002 6872 0002     .f...g../n..rh..
    e8a4:	6655 0002 6adb 0002 64a9 0002 6670 0002     Uf...j...d..pf..
    e8b4:	68b1 0002 68a7 0002 674b 0002 6414 0002     .h...h..Kg...d..
    e8c4:	6585 0002 6b16 0002 621c 0002 6826 0002     .e...k...b..&h..
    e8d4:	6af0 0002 636f 0002 6705 0002 64f3 0002     .j..oc...g...d..
    e8e4:	673d 0002 5dd4 0002 67ad 0002 65b4 0002     =g...]...g...e..
    e8f4:	6992 0002 66f2 0002 6a2d 0002 671d 0002     .i...f..-j...g..
    e904:	6348 0002 6c14 0002 6602 0002 6777 0002     Hc...l...f..wg..
    e914:	63eb 0002 6612 0002 630b 0002 6392 0002     .c...f...c...c..
    e924:	6276 0002 6291 0002 61be 0002 6d3d 0002     vb...b...a..=m..
    e934:	621b 0002 60e6 0002 6697 0002 672c 0002     .b...`...f..,g..
    e944:	643f 0002 666e 0002 6c98 0002 681a 0002     ?d..nf...l...h..
    e954:	6fe7 0002 6610 0002 63d9 0002 62bd 0002     .o...f...c...b..
    e964:	6475 0002 661b 0002 6d82 0002 6a35 0002     ud...f...m..5j..
    e974:	6402 0002 6379 0002 6a37 0002 62b6 0002     .d..yc..7j...b..
    e984:	685f 0002 6ed3 0002 6850 0002 60cd 0002     _h...n..Ph...`..
    e994:	670c 0002 68d7 0002 5ef8 0002 6677 0002     .g...h...^..wf..
    e9a4:	6633 0002 62da 0002 655b 0002 677a 0002     3f...b..[e..zg..
    e9b4:	65f1 0002 6502 0002 64cb 0002 6799 0002     .e...e...d...g..
    e9c4:	666b 0002 69d9 0002 6b3e 0002 6247 0002     kf...i..>k..Gb..
    e9d4:	6744 0002 64d0 0002 65d2 0002 66e3 0002     Dg...d...e...f..
    e9e4:	61a2 0002 6706 0002 6030 0002 6312 0002     .a...g..0`...c..
    e9f4:	6661 0002 683e 0002 66c1 0002 68a8 0002     af..>h...f...h..
    ea04:	6863 0002 65ea 0002 64df 0002 6560 0002     ch...e...d..`e..
    ea14:	699f 0002 6b7c 0002 6643 0002 6999 0002     .i..|k..Cf...i..
    ea24:	6749 0002 65fe 0002 644a 0002 65d3 0002     Ig...e..Jd...e..
    ea34:	68ae 0002 68e8 0002 6812 0002 6b04 0002     .h...h...h...k..
    ea44:	64c9 0002 65a3 0002 57db 0002 6b35 0002     .d...e...W..5k..
    ea54:	6f41 0002 63a9 0002 65b7 0002 659a 0002     Ao...c...e...e..
    ea64:	644b 0002 5d53 0002 652c 0002 6589 0002     Kd..S]..,e...e..
    ea74:	6b32 0002 66bc 0002 68ca 0002 6a73 0002     2k...f...h..sj..
    ea84:	6340 0002 6dad 0002 676c 0002 6471 0002     @c...m..lg..qd..
    ea94:	682d 0002 699d 0002 62b3 0002 688e 0002     -h...i...b...h..
    eaa4:	67f0 0002 6d18 0002 690f 0002 6638 0002     .g...m...i..8f..
    eab4:	6760 0002 64b6 0002 66d7 0002 6a53 0002     `g...d...f..Sj..
    eac4:	6699 0002 63c2 0002 6991 0002 6976 0002     .f...c...i..vi..
    ead4:	66e6 0002 651c 0002 67ed 0002 670c 0002     .f...e...g...g..
    eae4:	685e 0002 6106 0002 6a0c 0002 6d26 0002     ^h...a...j..&m..
    eaf4:	6811 0002 5e88 0002 6982 0002 6594 0002     .h...^...i...e..
    eb04:	6696 0002 672b 0002 64e1 0002 6a9b 0002     .f..+g...d...j..
    eb14:	61a7 0002 6a73 0002 6bf3 0002 652b 0002     .a..sj...k..+e..
    eb24:	683e 0002 5d50 0002 62b1 0002 6804 0002     >h..P]...b...h..
    eb34:	67a5 0002 68de 0002 6392 0002 6759 0002     .g...h...c..Yg..
    eb44:	67e8 0002 5e51 0002 6e1b 0002 6cf8 0002     .g..Q^...n...l..
    eb54:	6222 0002 6ba5 0002 650e 0002 6c9f 0002     "b...k...e...l..
    eb64:	6507 0002 6d25 0002 6872 0002 6c6f 0002     .e..%m..rh..ol..
    eb74:	6864 0002 6bcc 0002 6787 0002 67c7 0002     dh...k...g...g..
    eb84:	649f 0002 6314 0002 6bb3 0002 6025 0002     .d...c...k..%`..
    eb94:	6b9c 0002 6d06 0002 66b1 0002 648c 0002     .k...m...f...d..
    eba4:	69af 0002 68b4 0002 67df 0002 6f52 0002     .i...h...g..Ro..
    ebb4:	6669 0002 6701 0002 671f 0002 66f5 0002     if...g...g...f..
    ebc4:	6f43 0002 6727 0002 696c 0002 5d1f 0002     Co..'g..li...]..
    ebd4:	6769 0002 664c 0002 6a34 0002 6af8 0002     ig..Lf..4j...j..
    ebe4:	65cb 0002 66af 0002 6450 0002 66d9 0002     .e...f..Pd...f..
    ebf4:	62ac 0002 65c4 0002 6de7 0002 5fae 0002     .b...e...m..._..
    ec04:	673d 0002 6bb4 0002 6675 0002 6387 0002     =g...k..uf...c..
    ec14:	63c0 0002 5f6c 0002 6300 0002 6206 0002     .c..l_...c...b..
    ec24:	6cbf 0002 638b 0002 6aa3 0002 660f 0002     .l...c...j...f..
    ec34:	5cea 0002 6e8d 0002 6235 0002 6595 0002     .\...n..5b...e..
    ec44:	6765 0002 6560 0002 65d2 0002 6a8d 0002     eg..`e...e...j..
    ec54:	6816 0002 6fc3 0002 6a66 0002 672c 0002     .h...o..fj..,g..
    ec64:	685b 0002 69d2 0002 6bf2 0002 6376 0002     [h...i...k..vc..
    ec74:	690b 0002 662e 0002 6abd 0002 6970 0002     .i...f...j..pi..
    ec84:	6496 0002 67c6 0002 672a 0002 669a 0002     .d...g..*g...f..
    ec94:	66fa 0002 6698 0002 63a6 0002 67b6 0002     .f...f...c...g..
    eca4:	6224 0002 6d61 0002 6739 0002 69fc 0002     $b..am..9g...i..
    ecb4:	620c 0002 64f8 0002 62c3 0002 6b33 0002     .b...d...b..3k..
    ecc4:	64d9 0002 6627 0002 6df4 0002 66d7 0002     .d..'f...m...f..
    ecd4:	6639 0002 681a 0002 6a11 0002 698a 0002     9f...h...j...i..
    ece4:	66f0 0002 6616 0002 6869 0002 64d4 0002     .f...f..ih...d..
    ecf4:	6261 0002 6580 0002 6a6c 0002 63cc 0002     ab...e..lj...c..
    ed04:	671e 0002 6157 0002 649e 0002 653e 0002     .g..Wa...d..>e..
    ed14:	5f8f 0002 6673 0002 66e5 0002 68a4 0002     ._..sf...f...h..
    ed24:	67b7 0002 68e3 0002 68a8 0002 68cd 0002     .g...h...h...h..
    ed34:	686f 0002 67a0 0002 6caf 0002 6acd 0002     oh...g...l...j..
    ed44:	629b 0002 5dc5 0002 6862 0002 6579 0002     .b...]..bh..ye..
    ed54:	6e49 0002 6816 0002 68b0 0002 67ef 0002     In...h...h...g..
    ed64:	6ade 0002 627d 0002 67f5 0002 698b 0002     .j..}b...g...i..
    ed74:	629f 0002 6bae 0002 6815 0002 656f 0002     .b...k...h..oe..
    ed84:	64d1 0002 6107 0002 65db 0002 6f12 0002     .d...a...e...o..
    ed94:	671c 0002 6792 0002 6671 0002 6871 0002     .g...g..qf..qh..
    eda4:	6803 0002 631d 0002 6b97 0002 66a0 0002     .h...c...k...f..
    edb4:	6b44 0002 65a2 0002 68fb 0002 69e3 0002     Dk...e...h...i..
    edc4:	6080 0002 5e51 0002 6fb8 0002 6704 0002     .`..Q^...o...g..
    edd4:	675e 0002 60e7 0002 657c 0002 6821 0002     ^g...`..|e..!h..
    ede4:	66f8 0002 675f 0002 6806 0002 6c86 0002     .f.._g...h...l..
    edf4:	68bb 0002 6d21 0002 60b2 0002 6609 0002     .h..!m...`...f..
    ee04:	68a6 0002 638a 0002 6cd5 0002 690e 0002     .h...c...l...i..
    ee14:	6aab 0002 6359 0002 6385 0002 6585 0002     .j..Yc...c...e..
    ee24:	627a 0002 6301 0002 5fe7 0002 6a40 0002     zb...c..._..@j..
    ee34:	60d1 0002 6448 0002 6234 0002 6954 0002     .`..Hd..4b..Ti..
    ee44:	61e7 0002 69f3 0002 681b 0002 6552 0002     .a...i...h..Re..
    ee54:	6702 0002 6184 0002 688f 0002 6923 0002     .g...a...h..#i..
    ee64:	67d1 0002 66b6 0002 69b1 0002 6b05 0002     .g...f...i...k..
    ee74:	63e1 0002 6916 0002 6b06 0002 6660 0002     .c...i...k..`f..
    ee84:	689a 0002 6451 0002 61a3 0002 5f48 0002     .h..Qd...a..H_..
    ee94:	6298 0002 60d8 0002 6cf5 0002 6c40 0002     .b...`...l..@l..
    eea4:	6819 0002 6848 0002 6244 0002 6607 0002     .h..Hh..Db...f..
    eeb4:	68e9 0002 697c 0002 6616 0002 6913 0002     .h..|i...f...i..
    eec4:	6c10 0002 6d87 0002 665e 0002 645a 0002     .l...m..^f..Zd..
    eed4:	69a9 0002 700f 0002 646e 0002 660d 0002     .i...p..nd...f..
    eee4:	645d 0002 6459 0002 62b9 0002 6be4 0002     ]d..Yd...b...k..
    eef4:	6167 0002 62e9 0002 6189 0002 5fbb 0002     ga...b...a..._..
    ef04:	6d4e 0002 626b 0002 6393 0002 664d 0002     Nm..kb...c..Mf..
    ef14:	6a56 0002 6913 0002 6bfb 0002 64ca 0002     Vj...i...k...d..
    ef24:	6423 0002 63cb 0002 6ac7 0002 6688 0002     #d...c...j...f..
    ef34:	67d9 0002 6205 0002 66f3 0002 5eff 0002     .g...b...f...^..
    ef44:	64c3 0002 682d 0002 61a1 0002 6a4d 0002     .d..-h...a..Mj..
    ef54:	6eba 0002 6c39 0002 63c5 0002 651b 0002     .n..9l...c...e..
    ef64:	6c7a 0002 66e1 0002 65a2 0002 675d 0002     zl...f...e..]g..
    ef74:	65fa 0002 6909 0002 6541 0002 65ad 0002     .e...i..Ae...e..
    ef84:	63f2 0002 6ad6 0002 68f1 0002 64c7 0002     .c...j...h...d..
    ef94:	64f3 0002 63c0 0002 6a45 0002 6652 0002     .d...c..Ej..Rf..
    efa4:	6678 0002 62cf 0002 6b88 0002 62f5 0002     xf...b...k...b..
    efb4:	6c07 0002 6cec 0002 5fdd 0002 64d5 0002     .l...l..._...d..
    efc4:	6339 0002 6914 0002 6b2d 0002 6873 0002     9c...i..-k..sh..
    efd4:	6f06 0002 6673 0002 630d 0002 692e 0002     .o..sf...c...i..
    efe4:	6371 0002 6036 0002 6eae 0002 6514 0002     qc..6`...n...e..
    eff4:	6678 0002 6216 0002 66a5 0002 6d11 0002     xf...b...f...m..
    f004:	630c 0002 63e2 0002 6aaa 0002 655b 0002     .c...c...j..[e..
    f014:	60fa 0002 67f7 0002 6c0d 0002 604e 0002     .`...g...l..N`..
    f024:	6262 0002 69f6 0002 68dc 0002 6997 0002     bb...i...h...i..
    f034:	656d 0002 66c3 0002 60ce 0002 6a78 0002     me...f...`..xj..
    f044:	6934 0002 6689 0002 6857 0002 690c 0002     4i...f..Wh...i..
    f054:	614a 0002 69e7 0002 6c66 0002 67fa 0002     Ja...i..fl...g..
    f064:	6300 0002 6a5c 0002 62d4 0002 6523 0002     .c..\j...b..#e..
    f074:	64ee 0002 7128 0002 654c 0002 6d43 0002     .d..(q..Le..Cm..
    f084:	693e 0002 6277 0002 6516 0002 69ed 0002     >i..wb...e...i..
    f094:	6a01 0002 666d 0002 6664 0002 686d 0002     .j..mf..df..mh..
    f0a4:	62f2 0002 665b 0002 6877 0002 6222 0002     .b..[f..wh.."b..
    f0b4:	63e1 0002 610d 0002 6424 0002 6856 0002     .c...a..$d..Vh..
    f0c4:	6bcd 0002 6660 0002 6ab5 0002 6d28 0002     .k..`f...j..(m..
    f0d4:	653f 0002 6529 0002 6dc7 0002 5fd8 0002     ?e..)e...m..._..
    f0e4:	6624 0002 63df 0002 647b 0002 62b1 0002     $f...c..{d...b..
    f0f4:	684b 0002 693b 0002 6d1e 0002 66a3 0002     Kh..;i...m...f..
    f104:	6b0c 0002 62cf 0002 6836 0002 68d0 0002     .k...b..6h...h..
    f114:	69b0 0002 60e7 0002 6fad 0002 67da 0002     .i...`...o...g..
    f124:	6702 0002 6799 0002 616b 0002 6e12 0002     .g...g..ka...n..
    f134:	6420 0002 638d 0002 67f1 0002 5db7 0002      d...c...g...]..
    f144:	6a2a 0002 6a89 0002 6550 0002 6992 0002     *j...j..Pe...i..
    f154:	5c38 0002 69e8 0002 667b 0002 63c8 0002     8\...i..{f...c..
    f164:	69ef 0002 64cc 0002 662a 0002 64bc 0002     .i...d..*f...d..
    f174:	63da 0002 62c3 0002 6277 0002 69db 0002     .c...b..wb...i..
    f184:	66a3 0002 6469 0002 6794 0002 6447 0002     .f..id...g..Gd..
    f194:	686d 0002 6a51 0002 6419 0002 6b64 0002     mh..Qj...d..dk..
    f1a4:	6739 0002 6be8 0002 59a7 0002 6835 0002     9g...k...Y..5h..
    f1b4:	64f8 0002 65b4 0002 6720 0002 5b57 0002     .d...e.. g..W[..
    f1c4:	6c23 0002 6c65 0002 6714 0002 675f 0002     #l..el...g.._g..
    f1d4:	659d 0002 664b 0002 6a63 0002 68fd 0002     .e..Kf..cj...h..
    f1e4:	6587 0002 6773 0002 62f4 0002 628f 0002     .e..sg...b...b..
    f1f4:	661e 0002 65dd 0002 6868 0002 66c7 0002     .f...e..hh...f..
    f204:	6a39 0002 6839 0002 6784 0002 6482 0002     9j..9h...g...d..
    f214:	67f9 0002 5e58 0002 653f 0002 64fd 0002     .g..X^..?e...d..
    f224:	71e7 0002 65db 0002 6dce 0002 64fd 0002     .q...e...m...d..
    f234:	67b4 0002 68a8 0002 6426 0002 6e05 0002     .g...h..&d...n..
    f244:	67b8 0002 6049 0002 60c7 0002 6316 0002     .g..I`...`...c..
    f254:	63a5 0002 6793 0002 6759 0002 62c4 0002     .c...g..Yg...b..
    f264:	62f4 0002 62ac 0002 6211 0002 6b70 0002     .b...b...b..pk..
    f274:	6559 0002 6bf0 0002 6a10 0002 63b8 0002     Ye...k...j...c..
    f284:	6092 0002 67a7 0002 661e 0002 6968 0002     .`...g...f..hi..
    f294:	6486 0002 6b54 0002 6585 0002 6770 0002     .d..Tk...e..pg..
    f2a4:	6333 0002 6320 0002 6078 0002 635f 0002     3c.. c..x`.._c..
    f2b4:	65e5 0002 664c 0002 6858 0002 7301 0002     .e..Lf..Xh...s..
    f2c4:	68d1 0002 66e1 0002 632f 0002 67a7 0002     .h...f../c...g..
    f2d4:	68af 0002 65a0 0002 5eea 0002 67b2 0002     .h...e...^...g..
    f2e4:	7210 0002 6421 0002 6d43 0002 6546 0002     .r..!d..Cm..Fe..
    f2f4:	6700 0002 644e 0002 63cd 0002 6925 0002     .g..Nd...c..%i..
    f304:	6556 0002 64b7 0002 689e 0002 646b 0002     Ve...d...h..kd..
    f314:	6860 0002 6909 0002 65cb 0002 6bac 0002     `h...i...e...k..
    f324:	6502 0002 668d 0002 685f 0002 6850 0002     .e...f.._h..Ph..
    f334:	658e 0002 668a 0002 6d6c 0002 6665 0002     .e...f..lm..ef..
    f344:	6cc7 0002 6d48 0002 6856 0002 5f49 0002     .l..Hm..Vh..I_..
    f354:	696f 0002 6159 0002 68f3 0002 6595 0002     oi..Ya...h...e..
    f364:	671f 0002 64ee 0002 70be 0002 622c 0002     .g...d...p..,b..
    f374:	6c18 0002 6207 0002 6636 0002 65ea 0002     .l...b..6f...e..
    f384:	6544 0002 6954 0002 6287 0002 5ef7 0002     De..Ti...b...^..
    f394:	662d 0002 62a6 0002 6bdd 0002 6355 0002     -f...b...k..Uc..
    f3a4:	6c07 0002 6442 0002 6a44 0002 6c4c 0002     .l..Bd..Dj..Ll..
    f3b4:	655f 0002 6b41 0002 6c6c 0002 726c 0002     _e..Ak..ll..lr..
    f3c4:	6c2e 0002 6d62 0002 6e4c 0002 648a 0002     .l..bm..Ln...d..
    f3d4:	6955 0002 73f8 0002 6ef0 0002 6b16 0002     Ui...s...n...k..
    f3e4:	6bc8 0002 6b00 0002 7208 0002 6e08 0002     .k...k...r...n..
    f3f4:	70a0 0002 6ba2 0002 6b85 0002 6bba 0002     .p...k...k...k..
    f404:	6b69 0002 669d 0002 6e04 0002 7559 0002     ik...f...n..Yu..
    f414:	66f8 0002 6c1f 0002 6b33 0002 70e2 0002     .f...l..3k...p..
    f424:	658f 0002 6db7 0002 6db2 0002 718e 0002     .e...m...m...q..
    f434:	718f 0002 65b4 0002 6664 0002 6cdb 0002     .q...e..df...l..
    f444:	6d53 0002 6c72 0002 67be 0002 69db 0002     Sm..rl...g...i..
    f454:	67ed 0002 6e43 0002 702a 0002 65dc 0002     .g..Cn..*p...e..
    f464:	6cd4 0002 69d4 0002 6b7c 0002 70da 0002     .l...i..|k...p..
    f474:	61ce 0002 7082 0002 6eb0 0002 6b9e 0002     .a...p...n...k..
    f484:	6b00 0002 6151 0002 672e 0002 6782 0002     .k..Qa...g...g..
    f494:	7138 0002 7025 0002 6ccc 0002 69a4 0002     8q..%p...l...i..
    f4a4:	6dc4 0002 6aec 0002 6b06 0002 73c4 0002     .m...j...k...s..
    f4b4:	66b4 0002 6b46 0002 6afb 0002 6f79 0002     .f..Fk...j..yo..
    f4c4:	6b2d 0002 66a4 0002 6d35 0002 6e1e 0002     -k...f..5m...n..
    f4d4:	6c7f 0002 7321 0002 6873 0002 669a 0002     .l..!s..sh...f..
    f4e4:	689d 0002 675f 0002 69e5 0002 6c84 0002     .h.._g...i...l..
    f4f4:	6f38 0002 6d90 0002 74d1 0002 6d8b 0002     8o...m...t...m..
    f504:	6b58 0002 6ac7 0002 6dec 0002 69bc 0002     Xk...j...m...i..
    f514:	6b46 0002 62f6 0002 69d5 0002 6900 0002     Fk...b...i...i..
    f524:	6ad4 0002 6cc5 0002 686a 0002 6c23 0002     .j...l..jh..#l..
    f534:	72eb 0002 70cf 0002 6a5b 0002 6ccd 0002     .r...p..[j...l..
    f544:	6876 0002 6d4c 0002 7234 0002 66ca 0002     vh..Lm..4r...f..
    f554:	6c29 0002 6d6b 0002 6d0c 0002 6855 0002     )l..km...m..Uh..
    f564:	7162 0002 6de2 0002 6898 0002 712f 0002     bq...m...h../q..
    f574:	688e 0002 6a8d 0002 6e5c 0002 68cd 0002     .h...j..\n...h..
    f584:	7089 0002 6f95 0002 6d01 0002 6c74 0002     .p...o...m..tl..
    f594:	6db2 0002 6f44 0002 6b05 0002 6f07 0002     .m..Do...k...o..
    f5a4:	6f6e 0002 6a53 0002 6ced 0002 6b80 0002     no..Sj...l...k..
    f5b4:	6ad4 0002 732e 0002 6d86 0002 6bc1 0002     .j...s...m...k..
    f5c4:	68fc 0002 68da 0002 6bdc 0002 673c 0002     .h...h...k..<g..
    f5d4:	6bce 0002 688b 0002 6858 0002 6eea 0002     .k...h..Xh...n..
    f5e4:	6c25 0002 68fb 0002 67c2 0002 6e46 0002     %l...h...g..Fn..
    f5f4:	6c9e 0002 6ce5 0002 663e 0002 6fe5 0002     .l...l..>f...o..
    f604:	69fb 0002 6c0e 0002 6b58 0002 6fae 0002     .i...l..Xk...o..
    f614:	6b99 0002 6605 0002 6d3a 0002 6d09 0002     .k...f..:m...m..
    f624:	6a7f 0002 6890 0002 69b0 0002 6432 0002     .j...h...i..2d..
    f634:	68a3 0002 6802 0002 6dc4 0002 6a34 0002     .h...h...m..4j..
    f644:	6eb6 0002 6de7 0002 6c0d 0002 6ca1 0002     .n...m...l...l..
    f654:	6f2d 0002 69d0 0002 6d18 0002 6816 0002     -o...i...m...h..
    f664:	6b59 0002 743f 0002 66a0 0002 7192 0002     Yk..?t...f...q..
    f674:	66a8 0002 7416 0002 6cee 0002 6a41 0002     .f...t...l..Aj..
    f684:	6923 0002 6ef0 0002 6e6a 0002 6b9c 0002     #i...n..jn...k..
    f694:	68dd 0002 6b0e 0002 7048 0002 6aed 0002     .h...k..Hp...j..
    f6a4:	659f 0002 6cfa 0002 669c 0002 6c9c 0002     .e...l...f...l..
    f6b4:	6f35 0002 697b 0002 6e03 0002 7252 0002     5o..{i...n..Rr..
    f6c4:	6bfd 0002 6538 0002 6bb5 0002 735d 0002     .k..8e...k..]s..
    f6d4:	682c 0002 696e 0002 6840 0002 62e5 0002     ,h..ni..@h...b..
    f6e4:	727e 0002 6f3f 0002 6a49 0002 6bc9 0002     ~r..?o..Ij...k..
    f6f4:	6be4 0002 68e7 0002 6d2f 0002 6560 0002     .k...h../m..`e..
    f704:	6db1 0002 6cd8 0002 6939 0002 6e59 0002     .m...l..9i..Yn..
    f714:	6e51 0002 665b 0002 6cdf 0002 6731 0002     Qn..[f...l..1g..
    f724:	6f34 0002 71a2 0002 6faa 0002 7108 0002     4o...q...o...q..
    f734:	6af7 0002 6623 0002 6d82 0002 6639 0002     .j..#f...m..9f..
    f744:	70a4 0002 6b32 0002 6976 0002 7108 0002     .p..2k..vi...q..
    f754:	72f5 0002 7213 0002 6c8e 0002 6813 0002     .r...r...l...h..
    f764:	6e6b 0002 7223 0002 65c6 0002 6d8f 0002     kn..#r...e...m..
    f774:	7194 0002 711a 0002 62ef 0002 6906 0002     .q...q...b...i..
    f784:	66ad 0002 6888 0002 68cc 0002 6c86 0002     .f...h...h...l..
    f794:	6e9d 0002 6ff6 0002 6d47 0002 6c32 0002     .n...o..Gm..2l..
    f7a4:	70c6 0002 708a 0002 6e6e 0002 6ab4 0002     .p...p..nn...j..
    f7b4:	72d3 0002 6b07 0002 6b10 0002 6a3b 0002     .r...k...k..;j..
    f7c4:	6aed 0002 710d 0002 67de 0002 6b25 0002     .j...q...g..%k..
    f7d4:	6767 0002 775e 0002 6cc3 0002 62c0 0002     gg..^w...l...b..
    f7e4:	6d60 0002 66fa 0002 6cfc 0002 702d 0002     `m...f...l..-p..
    f7f4:	6f16 0002 654f 0002 6783 0002 699a 0002     .o..Oe...g...i..
    f804:	6570 0002 71ca 0002 6c2b 0002 7260 0002     pe...q..+l..`r..
    f814:	6a4a 0002 6c49 0002 7029 0002 69ba 0002     Jj..Il..)p...i..
    f824:	6cf0 0002 69ba 0002 6c21 0002 6afa 0002     .l...i..!l...j..
    f834:	6e57 0002 6ccc 0002 690b 0002 6964 0002     Wn...l...i..di..
    f844:	6cb4 0002 6cff 0002 761e 0002 6707 0002     .l...l...v...g..
    f854:	6564 0002 6bdc 0002 6fef 0002 6d11 0002     de...k...o...m..
    f864:	6886 0002 7173 0002 694d 0002 6ddb 0002     .h..sq..Mi...m..
    f874:	6905 0002 6bd9 0002 671a 0002 69a4 0002     .i...k...g...i..
    f884:	6e47 0002 6a3b 0002 74cf 0002 6fff 0002     Gn..;j...t...o..
    f894:	6e04 0002 6cf6 0002 6a25 0002 66ad 0002     .n...l..%j...f..
    f8a4:	6aba 0002 69f1 0002 6a92 0002 6742 0002     .j...i...j..Bg..
    f8b4:	6f38 0002 67d8 0002 6b09 0002 7333 0002     8o...g...k..3s..
    f8c4:	6b6e 0002 6bf6 0002 6a06 0002 6d4d 0002     nk...k...j..Mm..
    f8d4:	6cc6 0002 68d7 0002 6f3e 0002 6f76 0002     .l...h..>o..vo..
    f8e4:	6a2d 0002 6c63 0002 664b 0002 6a8f 0002     -j..cl..Kf...j..
    f8f4:	6d0a 0002 6c04 0002 6490 0002 6826 0002     .m...l...d..&h..
    f904:	6b1c 0002 6ce0 0002 693a 0002 6868 0002     .k...l..:i..hh..
    f914:	6710 0002 6e85 0002 66d7 0002 68fc 0002     .g...n...f...h..
    f924:	6a05 0002 677b 0002 6bdd 0002 697d 0002     .j..{g...k..}i..
    f934:	6d8a 0002 6944 0002 6bf2 0002 6c14 0002     .m..Di...k...l..
    f944:	6f9b 0002 6718 0002 6ef3 0002 69d9 0002     .o...g...n...i..
    f954:	6a2f 0002 6d54 0002 5f9f 0002 6b87 0002     /j..Tm..._...k..
    f964:	6707 0002 7298 0002 6970 0002 6606 0002     .g...r..pi...f..
    f974:	6c05 0002 694b 0002 6c38 0002 6a6f 0002     .l..Ki..8l..oj..
    f984:	70a7 0002 6b82 0002 6df8 0002 6ed6 0002     .p...k...m...n..
    f994:	714f 0002 6c3c 0002 672c 0002 7183 0002     Oq..<l..,g...q..
    f9a4:	7104 0002 6470 0002 6a58 0002 6944 0002     .q..pd..Xj..Di..
    f9b4:	6fbb 0002 6f95 0002 700c 0002 6eed 0002     .o...o...p...n..
    f9c4:	6953 0002 6720 0002 6e4c 0002 63a5 0002     Si.. g..Ln...c..
    f9d4:	6c64 0002 6a92 0002 6224 0002 6548 0002     dl...j..$b..He..
    f9e4:	6a31 0002 6d94 0002 6d6d 0002 6905 0002     1j...m..mm...i..
    f9f4:	6713 0002 6c2a 0002 6c47 0002 6835 0002     .g..*l..Gl..5h..
    fa04:	65ed 0002 700e 0002 6cd7 0002 6eb3 0002     .e...p...l...n..
    fa14:	6d0e 0002 6f87 0002 671f 0002 6456 0002     .m...o...g..Vd..
    fa24:	69fa 0002 67ec 0002 679a 0002 6cf4 0002     .i...g...g...l..
    fa34:	6a64 0002 6c04 0002 66ba 0002 6bc4 0002     dj...l...f...k..
    fa44:	6f57 0002 70a5 0002 6aeb 0002 6bdd 0002     Wo...p...j...k..
    fa54:	6c0a 0002 67cc 0002 67cd 0002 6cfb 0002     .l...g...g...l..
    fa64:	6b95 0002 67a6 0002 6fcc 0002 6a06 0002     .k...g...o...j..
    fa74:	6b25 0002 70fb 0002 68f8 0002 726d 0002     %k...p...h..mr..
    fa84:	6df7 0002 65ba 0002 672c 0002 69f1 0002     .m...e..,g...i..
    fa94:	6d28 0002 6f39 0002 680e 0002 68bb 0002     (m..9o...h...h..
    faa4:	6d6a 0002 6b09 0002 69b3 0002 6e24 0002     jm...k...i..$n..
    fab4:	6b54 0002 7002 0002 6a10 0002 6a0a 0002     Tk...p...j...j..
    fac4:	6e98 0002 7048 0002 6c6c 0002 6a43 0002     .n..Hp..ll..Cj..
    fad4:	68de 0002 6af4 0002 6633 0002 6b0c 0002     .h...j..3f...k..
    fae4:	7170 0002 68e7 0002 64ed 0002 6b3c 0002     pq...h...d..<k..
    faf4:	6cbf 0002 7310 0002 73b1 0002 675c 0002     .l...s...s..\g..
    fb04:	6ec6 0002 6c1b 0002 6dd6 0002 6688 0002     .n...l...m...f..
    fb14:	6c6e 0002 6d63 0002 6cac 0002 692b 0002     nl..cm...l..+i..
    fb24:	689d 0002 6a9d 0002 6cab 0002 69f7 0002     .h...j...l...i..
    fb34:	6e3d 0002 71fd 0002 6acd 0002 689b 0002     =n...q...j...h..
    fb44:	6982 0002 69ed 0002 71af 0002 691d 0002     .i...i...q...i..
    fb54:	6e1e 0002 726e 0002 6b6e 0002 6dbd 0002     .n..nr..nk...m..
    fb64:	728c 0002 6c30 0002 6a80 0002 71d3 0002     .r..0l...j...q..
    fb74:	7060 0002 6fbb 0002 71f7 0002 6ac8 0002     `p...o...q...j..
    fb84:	6c51 0002 73bd 0002 7319 0002 6767 0002     Ql...s...s..gg..
    fb94:	7148 0002 6ab4 0002 6fa2 0002 6ccd 0002     Hq...j...o...l..
    fba4:	6ca2 0002 6c78 0002 6eef 0002 665d 0002     .l..xl...n..]f..
    fbb4:	73e0 0002 6c5c 0002 6c37 0002 6c90 0002     .s..\l..7l...l..
    fbc4:	66ab 0002 6a04 0002 6fa8 0002 6cc6 0002     .f...j...o...l..
    fbd4:	68d7 0002 6b1e 0002 6b68 0002 706e 0002     .h...k..hk..np..
    fbe4:	6bf9 0002 66cd 0002 6b9c 0002 7109 0002     .k...f...k...q..
    fbf4:	6c62 0002 6cbe 0002 722d 0002 6ea6 0002     bl...l..-r...n..
    fc04:	65eb 0002 6e39 0002 6bbc 0002 6c02 0002     .e..9n...k...l..
    fc14:	7081 0002 6f3a 0002 69e0 0002 6983 0002     .p..:o...i...i..
    fc24:	6ab4 0002 65d8 0002 6e52 0002 6c49 0002     .j...e..Rn..Il..
    fc34:	6cb7 0002 7513 0002 6945 0002 6e00 0002     .l...u..Ei...n..
    fc44:	66e9 0002 68e8 0002 6c78 0002 6982 0002     .f...h..xl...i..
    fc54:	6ae8 0002 68e2 0002 6b86 0002 6e9b 0002     .j...h...k...n..
    fc64:	6703 0002 6e1e 0002 6bf4 0002 68d1 0002     .g...n...k...h..
    fc74:	6dd7 0002 6a5b 0002 6833 0002 6e72 0002     .m..[j..3h..rn..
    fc84:	6929 0002 6b29 0002 6ae5 0002 7118 0002     )i..)k...j...q..
    fc94:	6976 0002 6b88 0002 6ca7 0002 6b65 0002     vi...k...l..ek..
    fca4:	6be3 0002 6968 0002 6af0 0002 6b3d 0002     .k..hi...j..=k..
    fcb4:	651f 0002 6cee 0002 6f33 0002 681b 0002     .e...l..3o...h..
    fcc4:	71bb 0002 6c94 0002 6fb0 0002 6c42 0002     .q...l...o..Bl..
    fcd4:	6e19 0002 7009 0002 6bbd 0002 706b 0002     .n...p...k..kp..
    fce4:	671b 0002 728d 0002 6b84 0002 6cf1 0002     .g...r...k...l..
    fcf4:	6a2d 0002 69ff 0002 63bf 0002 7472 0002     -j...i...c..rt..
    fd04:	7035 0002 71ed 0002 73a4 0002 6bf1 0002     5p...q...s...k..
    fd14:	6ad4 0002 6b2e 0002 6d60 0002 6f19 0002     .j...k..`m...o..
    fd24:	6bd2 0002 717c 0002 6bd5 0002 6650 0002     .k..|q...k..Pf..
    fd34:	7286 0002 688a 0002 6d73 0002 6c3d 0002     .r...h..sm..=l..
    fd44:	704a 0002 7585 0002 6877 0002 673b 0002     Jp...u..wh..;g..
    fd54:	682f 0002 6b8c 0002 6cb8 0002 7004 0002     /h...k...l...p..
    fd64:	672b 0002 68fa 0002 6951 0002 6c8b 0002     +g...h..Qi...l..
    fd74:	6d92 0002 6964 0002 770b 0002 6a86 0002     .m..di...w...j..
    fd84:	6e1f 0002 6efb 0002 67b6 0002 6dd7 0002     .n...n...g...m..
    fd94:	6e50 0002 6a44 0002 6b89 0002 6b24 0002     Pn..Dj...k..$k..
    fda4:	64b2 0002 6bb2 0002 6b5c 0002 6b0a 0002     .d...k..\k...k..
    fdb4:	7102 0002 63ff 0002 6a77 0002 689b 0002     .q...c..wj...h..
    fdc4:	6c60 0002 6d40 0002 6d1e 0002 70fa 0002     `l..@m...m...p..
    fdd4:	68fa 0002 676b 0002 691a 0002 6bed 0002     .h..kg...i...k..
    fde4:	752a 0002 6961 0002 68dc 0002 6c46 0002     *u..ai...h..Fl..
    fdf4:	6972 0002 6a7d 0002 6e03 0002 721c 0002     ri..}j...n...r..
    fe04:	7365 0002 6d1c 0002 6b00 0002 6cc7 0002     es...m...k...l..
    fe14:	644c 0002 6828 0002 6c03 0002 6d96 0002     Ld..(h...l...m..
    fe24:	6df7 0002 70e6 0002 685e 0002 6e99 0002     .m...p..^h...n..
    fe34:	673d 0002 6e92 0002 6849 0002 7258 0002     =g...n..Ih..Xr..
    fe44:	6d45 0002 6ed9 0002 71f5 0002 6f4d 0002     Em...n...q..Mo..
    fe54:	74ed 0002 6c43 0002 72de 0002 6d09 0002     .t..Cl...r...m..
    fe64:	6998 0002 67a1 0002 6ab7 0002 6956 0002     .i...g...j..Vi..
    fe74:	6a98 0002 61c9 0002 6a84 0002 7393 0002     .j...a...j...s..
    fe84:	6fac 0002 6e50 0002 6bb2 0002 704a 0002     .o..Pn...k..Jp..
    fe94:	6936 0002 6bd7 0002 702e 0002 6b70 0002     6i...k...p..pk..
    fea4:	6b05 0002 718a 0002 70b0 0002 6800 0002     .k...q...p...h..
    feb4:	6a5b 0002 70e8 0002 6da8 0002 6bbb 0002     [j...p...m...k..
    fec4:	6b12 0002 6831 0002 6e96 0002 6e23 0002     .k..1h...n..#n..
    fed4:	66c2 0002 701b 0002 683b 0002 7256 0002     .f...p..;h..Vr..
    fee4:	6bdd 0002 6ac4 0002 6933 0002 6a1d 0002     .k...j..3i...j..
    fef4:	6b5e 0002 6d59 0002 74ae 0002 6a0f 0002     ^k..Ym...t...j..
    ff04:	693a 0002 7345 0002 7096 0002 6df6 0002     :i..Es...p...m..
    ff14:	6eb4 0002 6740 0002 6bc2 0002 6ae5 0002     .n..@g...k...j..
    ff24:	6a32 0002 6cf1 0002 6e98 0002 6878 0002     2j...l...n..xh..
    ff34:	635b 0002 6fb9 0002 6b58 0002 6c76 0002     [c...o..Xk..vl..
    ff44:	6e86 0002 6da1 0002 7095 0002 6b6c 0002     .n...m...p..lk..
    ff54:	6a2b 0002 6d2e 0002 6673 0002 6ecb 0002     +j...m..sf...n..
    ff64:	6c66 0002 66b3 0002 6d1b 0002 6ee9 0002     fl...f...m...n..
    ff74:	6a4e 0002 69dd 0002 6922 0002 6ae7 0002     Nj...i.."i...j..
    ff84:	7484 0002 70ea 0002 6784 0002 6970 0002     .t...p...g..pi..
    ff94:	6c14 0002 70b9 0002 6c15 0002 6b9e 0002     .l...p...l...k..
    ffa4:	6950 0002 6aed 0002 7143 0002 6da5 0002     Pi...j..Cq...m..
    ffb4:	6a78 0002 6bfd 0002 718c 0002 6d6d 0002     xj...k...q..mm..
    ffc4:	6bfb 0002 6903 0002 62c0 0002 66e0 0002     .k...i...b...f..
    ffd4:	6dee 0002 728d 0002 66c9 0002 707a 0002     .m...r...f..zp..
    ffe4:	6b55 0002 6d51 0002 6afa 0002 7223 0002     Uk..Qm...j..#r..
    fff4:	6a17 0002 719c 0002 6ca7 0002 6b94 0002     .j...q...l...k..
   10004:	6574 0002 6b47 0002 6db0 0002 6cd9 0002     te..Gk...m...l..
   10014:	7014 0002 6e49 0002 6b4c 0002 67a1 0002     .p..In..Lk...g..
   10024:	6e58 0002 6985 0002 7471 0002 6bbb 0002     Xn...i..qt...k..
   10034:	7131 0002 6dd5 0002 6b47 0002 6ee7 0002     1q...m..Gk...n..
   10044:	7300 0002 6f11 0002 7117 0002 7128 0002     .s...o...q..(q..
   10054:	66a6 0002 6dc6 0002 7366 0002 6e95 0002     .f...m..fs...n..
   10064:	6fa4 0002 6e7f 0002 6e8b 0002 6d23 0002     .o...n...n..#m..
   10074:	7327 0002 7083 0002 6b2f 0002 721f 0002     's...p../k...r..
   10084:	6ebc 0002 6fbf 0002 6c5e 0002 79e8 0002     .n...o..^l...y..
   10094:	7120 0002 6921 0002 6e6c 0002 6fc8 0002      q..!i..ln...o..
   100a4:	66e1 0002 7029 0002 72b0 0002 73b2 0002     .f..)p...r...s..
   100b4:	746c 0002 6cbe 0002 7616 0002 6e1c 0002     lt...l...v...n..
   100c4:	6fde 0002 6dc1 0002 6ae8 0002 6c9f 0002     .o...m...j...l..
   100d4:	6644 0002 73a2 0002 74dc 0002 6e09 0002     Df...s...t...n..
   100e4:	6edc 0002 7395 0002 74cd 0002 6c38 0002     .n...s...t..8l..
   100f4:	6f32 0002 6ac8 0002 7b15 0002 721c 0002     2o...j...{...r..
   10104:	6fb0 0002 71db 0002 7408 0002 6ee1 0002     .o...q...t...n..
   10114:	7206 0002 6f1b 0002 7016 0002 6875 0002     .r...o...p..uh..
   10124:	7084 0002 70ef 0002 6e27 0002 6e79 0002     .p...p..'n..yn..
   10134:	6e58 0002 7098 0002 706e 0002 69c1 0002     Xn...p..np...i..
   10144:	7422 0002 743c 0002 6f0e 0002 6be9 0002     "t..<t...o...k..
   10154:	72a1 0002 74b9 0002 6fec 0002 6e89 0002     .r...t...o...n..
   10164:	6b18 0002 7414 0002 72ce 0002 6b4d 0002     .k...t...r..Mk..
   10174:	7341 0002 6f08 0002 6f22 0002 70ae 0002     As...o.."o...p..
   10184:	73fb 0002 6e2a 0002 6f2d 0002 6b59 0002     .s..*n..-o..Yk..
   10194:	704a 0002 7215 0002 6cc3 0002 6dc9 0002     Jp...r...l...m..
   101a4:	728d 0002 73b3 0002 7144 0002 6a23 0002     .r...s..Dq..#j..
   101b4:	6f4e 0002 6e5d 0002 7408 0002 6b10 0002     No..]n...t...k..
   101c4:	71fc 0002 6f5c 0002 707e 0002 78e3 0002     .q..\o..~p...x..
   101d4:	6910 0002 6ee6 0002 70d3 0002 68e4 0002     .i...n...p...h..
   101e4:	7025 0002 6cee 0002 6c76 0002 702b 0002     %p...l..vl..+p..
   101f4:	747d 0002 74ce 0002 713b 0002 6fb2 0002     }t...t..;q...o..
   10204:	6e04 0002 6927 0002 6aa9 0002 6f4f 0002     .n..'i...j..Oo..
   10214:	6b7c 0002 6ddc 0002 6e5f 0002 7166 0002     |k...m.._n..fq..
   10224:	6fe0 0002 724b 0002 6900 0002 7167 0002     .o..Kr...i..gq..
   10234:	7554 0002 6ef0 0002 699f 0002 734b 0002     Tu...n...i..Ks..
   10244:	6ef9 0002 69f4 0002 7042 0002 6cc8 0002     .n...i..Bp...l..
   10254:	7047 0002 707a 0002 70d0 0002 6b81 0002     Gp..zp...p...k..
   10264:	70dc 0002 684c 0002 7613 0002 6f10 0002     .p..Lh...v...o..
   10274:	6aae 0002 7468 0002 6a85 0002 6cdc 0002     .j..ht...j...l..
   10284:	7c72 0002 7019 0002 6a98 0002 6f5a 0002     r|...p...j..Zo..
   10294:	7467 0002 7469 0002 725c 0002 6f90 0002     gt..it..\r...o..
   102a4:	6f11 0002 742e 0002 7525 0002 69f6 0002     .o...t..%u...i..
   102b4:	6f3c 0002 753e 0002 6e90 0002 7295 0002     <o..>u...n...r..
   102c4:	711b 0002 6faf 0002 7180 0002 6ffb 0002     .q...o...q...o..
   102d4:	6d27 0002 7134 0002 6c36 0002 6d39 0002     'm..4q..6l..9m..
   102e4:	71c8 0002 6f0f 0002 6c22 0002 6bb3 0002     .q...o.."l...k..
   102f4:	6edb 0002 73ea 0002 6e73 0002 6fc3 0002     .n...s..sn...o..
   10304:	7531 0002 79a7 0002 68df 0002 6dbf 0002     1u...y...h...m..
   10314:	6f13 0002 7661 0002 6e51 0002 7402 0002     .o..av..Qn...t..
   10324:	6db9 0002 70f0 0002 6a66 0002 6cc9 0002     .m...p..fj...l..
   10334:	6b14 0002 704a 0002 6dd5 0002 71f1 0002     .k..Jp...m...q..
   10344:	763d 0002 7179 0002 743c 0002 6fe0 0002     =v..yq..<t...o..
   10354:	72b6 0002 6acf 0002 7057 0002 6d4d 0002     .r...j..Wp..Mm..
   10364:	71e3 0002 7145 0002 71b8 0002 64ab 0002     .q..Eq...q...d..
   10374:	75b0 0002 6a28 0002 6c20 0002 6ecb 0002     .u..(j.. l...n..
   10384:	7216 0002 701e 0002 6fc0 0002 7165 0002     .r...p...o..eq..
   10394:	7174 0002 6b91 0002 687c 0002 72e1 0002     tq...k..|h...r..
   103a4:	6a9e 0002 7299 0002 6bae 0002 74a8 0002     .j...r...k...t..
   103b4:	70d2 0002 6ab2 0002 7509 0002 74b7 0002     .p...j...u...t..
   103c4:	743f 0002 73c0 0002 72c6 0002 6e93 0002     ?t...s...r...n..
   103d4:	7264 0002 7387 0002 6add 0002 6f32 0002     dr...s...j..2o..
   103e4:	6e66 0002 6a1a 0002 6db9 0002 6e5b 0002     fn...j...m..[n..
   103f4:	6b14 0002 6d9a 0002 770d 0002 6fa4 0002     .k...m...w...o..
   10404:	73fd 0002 718c 0002 73f5 0002 6b17 0002     .s...q...s...k..
   10414:	6978 0002 73b8 0002 75ac 0002 71b4 0002     xi...s...u...q..
   10424:	6bae 0002 72db 0002 725f 0002 69a4 0002     .k...r.._r...i..
   10434:	6e93 0002 6a43 0002 7191 0002 6e3a 0002     .n..Cj...q..:n..
   10444:	6f06 0002 71af 0002 6fe1 0002 7548 0002     .o...q...o..Hu..
   10454:	7577 0002 6c4f 0002 6971 0002 755c 0002     wu..Ol..qi..\u..
   10464:	6ec0 0002 6f41 0002 6aad 0002 71e5 0002     .n..Ao...j...q..
   10474:	6e05 0002 7541 0002 6ed9 0002 6ee1 0002     .n..Au...n...n..
   10484:	6ca7 0002 6be6 0002 6acc 0002 6d6e 0002     .l...k...j..nm..
   10494:	6e96 0002 7163 0002 7428 0002 7553 0002     .n..cq..(t..Su..
   104a4:	6fc1 0002 72ee 0002 7181 0002 6fb0 0002     .o...r...q...o..
   104b4:	70ea 0002 754c 0002 70c6 0002 70ff 0002     .p..Lu...p...p..
   104c4:	6f41 0002 6acf 0002 6c24 0002 6f32 0002     Ao...j..$l..2o..
   104d4:	6ee2 0002 718d 0002 6b29 0002 6af9 0002     .n...q..)k...j..
   104e4:	7a78 0002 70e7 0002 7125 0002 6c97 0002     xz...p..%q...l..
   104f4:	715f 0002 7150 0002 6d62 0002 6f8e 0002     _q..Pq..bm...o..
   10504:	7277 0002 6891 0002 71a2 0002 6db6 0002     wr...h...q...m..
   10514:	7145 0002 6c51 0002 7035 0002 7133 0002     Eq..Ql..5p..3q..
   10524:	74c2 0002 734a 0002 7308 0002 6d7e 0002     .t..Js...s..~m..
   10534:	7213 0002 7027 0002 71aa 0002 6ace 0002     .r..'p...q...j..
   10544:	6d7c 0002 6b20 0002 6974 0002 6ee5 0002     |m.. k..ti...n..
   10554:	7476 0002 6b46 0002 6c1d 0002 6d44 0002     vt..Fk...l..Dm..
   10564:	710e 0002 6d00 0002 6a3a 0002 6f0d 0002     .q...m..:j...o..
   10574:	7019 0002 6c43 0002 7202 0002 6804 0002     .p..Cl...r...h..
   10584:	6ba8 0002 6f13 0002 698b 0002 6d2d 0002     .k...o...i..-m..
   10594:	6f3a 0002 7225 0002 6f13 0002 6c53 0002     :o..%r...o..Sl..
   105a4:	744c 0002 6bd0 0002 70ba 0002 71a0 0002     Lt...k...p...q..
   105b4:	6c17 0002 75af 0002 71f0 0002 6cff 0002     .l...u...q...l..
   105c4:	745a 0002 7631 0002 6d06 0002 6dcc 0002     Zt..1v...m...m..
   105d4:	71f8 0002 6ecf 0002 6b76 0002 7627 0002     .q...n..vk..'v..
   105e4:	6d8b 0002 713b 0002 677d 0002 6a4c 0002     .m..;q..}g..Lj..
   105f4:	73b1 0002 6d28 0002 6f63 0002 71e6 0002     .s..(m..co...q..
   10604:	6d3c 0002 75f2 0002 763a 0002 7340 0002     <m...u..:v..@s..
   10614:	7598 0002 7192 0002 6c69 0002 6f34 0002     .u...q..il..4o..
   10624:	6f32 0002 747a 0002 6a41 0002 6feb 0002     2o..zt..Aj...o..
   10634:	731b 0002 6e38 0002 7130 0002 6880 0002     .s..8n..0q...h..
   10644:	7433 0002 715c 0002 6f4e 0002 744f 0002     3t..\q..No..Ot..
   10654:	6730 0002 6e4c 0002 71df 0002 68c2 0002     0g..Ln...q...h..
   10664:	79fd 0002 76f4 0002 72ca 0002 6f45 0002     .y...v...r..Eo..
   10674:	6cdc 0002 6f8d 0002 6b91 0002 701c 0002     .l...o...k...p..
   10684:	6fff 0002 7071 0002 6aec 0002 6ad2 0002     .o..qp...j...j..
   10694:	70c0 0002 6f55 0002 6805 0002 7154 0002     .p..Uo...h..Tq..
   106a4:	6f78 0002 6de3 0002 7258 0002 6c33 0002     xo...m..Xr..3l..
   106b4:	67b8 0002 65c7 0002 72bf 0002 721d 0002     .g...e...r...r..
   106c4:	6c70 0002 6b35 0002 6cca 0002 6aaa 0002     pl..5k...l...j..
   106d4:	73a8 0002 646c 0002 6eaa 0002 6815 0002     .s..ld...n...h..
   106e4:	6f2c 0002 717f 0002 702e 0002 6b68 0002     ,o...q...p..hk..
   106f4:	6fc2 0002 7274 0002 70b5 0002 74c3 0002     .o..tr...p...t..
   10704:	73b4 0002 72dc 0002 74fa 0002 67f0 0002     .s...r...t...g..
   10714:	6ffd 0002 780a 0002 72c0 0002 6f97 0002     .o...x...r...o..
   10724:	7134 0002 6f01 0002 6e88 0002 6d05 0002     4q...o...n...m..
   10734:	71fc 0002 6f51 0002 6d0c 0002 6f63 0002     .q..Qo...m..co..
   10744:	75a2 0002 7244 0002 7302 0002 7214 0002     .u..Dr...s...r..
   10754:	7469 0002 6e4c 0002 6f6c 0002 7466 0002     it..Ln..lo..ft..
   10764:	6b10 0002 6ba8 0002 6e53 0002 778b 0002     .k...k..Sn...w..
   10774:	6814 0002 73f5 0002 710b 0002 6fa2 0002     .h...s...q...o..
   10784:	7375 0002 6ea1 0002 6f0b 0002 7115 0002     us...n...o...q..
   10794:	70bb 0002 6f97 0002 70a9 0002 6e45 0002     .p...o...p..En..
   107a4:	798f 0002 6e79 0002 6dda 0002 71bc 0002     .y..yn...m...q..
   107b4:	71ac 0002 704f 0002 6d97 0002 71c5 0002     .q..Op...m...q..
   107c4:	6a8a 0002 6c59 0002 7baf 0002 7000 0002     .j..Yl...{...p..
   107d4:	6f30 0002 6eab 0002 6c55 0002 73f7 0002     0o...n..Ul...s..
   107e4:	72b1 0002 7005 0002 6f41 0002 7093 0002     .r...p..Ao...p..
   107f4:	6e88 0002 7294 0002 6de8 0002 7291 0002     .n...r...m...r..
   10804:	6d9c 0002 6fe9 0002 731a 0002 70cc 0002     .m...o...s...p..
   10814:	6d3d 0002 705a 0002 7624 0002 6980 0002     =m..Zp..$v...i..
   10824:	6781 0002 6c52 0002 6e6c 0002 6eb6 0002     .g..Rl..ln...n..
   10834:	6d0f 0002 6839 0002 74a9 0002 7274 0002     .m..9h...t..tr..
   10844:	7057 0002 748a 0002 6ba7 0002 6d17 0002     Wp...t...k...m..
   10854:	6b5b 0002 6eeb 0002 7626 0002 6b46 0002     [k...n..&v..Fk..
   10864:	7286 0002 7302 0002 6fae 0002 6a63 0002     .r...s...o..cj..
   10874:	7001 0002 6d1e 0002 738c 0002 71b2 0002     .p...m...s...q..
   10884:	7524 0002 729c 0002 6c87 0002 76d3 0002     $u...r...l...v..
   10894:	6c04 0002 6f34 0002 739d 0002 6dae 0002     .l..4o...s...m..
   108a4:	716f 0002 70c4 0002 70a2 0002 6ac3 0002     oq...p...p...j..
   108b4:	7a96 0002 6aad 0002 759c 0002 70b9 0002     .z...j...u...p..
   108c4:	6a89 0002 6abf 0002 6e53 0002 6c6b 0002     .j...j..Sn..kl..
   108d4:	72cb 0002 6efa 0002 6c15 0002 6c45 0002     .r...n...l..El..
   108e4:	76e7 0002 72d2 0002 6cac 0002 677a 0002     .v...r...l..zg..
   108f4:	7337 0002 6c14 0002 6d84 0002 6b34 0002     7s...l...m..4k..
   10904:	7154 0002 7410 0002 7326 0002 7136 0002     Tq...t..&s..6q..
   10914:	66d9 0002 6dc7 0002 7141 0002 67b2 0002     .f...m..Aq...g..
   10924:	6c00 0002 701b 0002 7050 0002 74bd 0002     .l...p..Pp...t..
   10934:	71c4 0002 6a02 0002 6eb7 0002 729b 0002     .q...j...n...r..
   10944:	7472 0002 6e87 0002 73b2 0002 6c84 0002     rt...n...s...l..
   10954:	6d1a 0002 70b2 0002 6c0c 0002 6903 0002     .m...p...l...i..
   10964:	77ce 0002 713d 0002 68b4 0002 6dda 0002     .w..=q...h...m..
   10974:	7235 0002 6c93 0002 6f53 0002 6b9e 0002     5r...l..So...k..
   10984:	769b 0002 6f32 0002 71f0 0002 712a 0002     .v..2o...q..*q..
   10994:	6fbf 0002 725b 0002 710c 0002 731a 0002     .o..[r...q...s..
   109a4:	6f40 0002 701d 0002 70b3 0002 6d74 0002     @o...p...p..tm..
   109b4:	70f7 0002 6fb8 0002 743a 0002 6de4 0002     .p...o..:t...m..
   109c4:	6c02 0002 71db 0002 7097 0002 6b58 0002     .l...q...p..Xk..
   109d4:	7210 0002 7118 0002 7001 0002 71b2 0002     .r...q...p...q..
   109e4:	6d1e 0002 7144 0002 6d37 0002 765b 0002     .m..Dq..7m..[v..
   109f4:	6fd4 0002 6cbf 0002 6d80 0002 6cdc 0002     .o...l...m...l..
   10a04:	6c54 0002 6d66 0002 7517 0002 7b02 0002     Tl..fm...u...{..
   10a14:	6cab 0002 6e5e 0002 6802 0002 6eda 0002     .l..^n...h...n..
   10a24:	7261 0002 6cb9 0002 716a 0002 75c6 0002     ar...l..jq...u..
   10a34:	6e2b 0002 6dfe 0002 6c28 0002 6cdc 0002     +n...m..(l...l..
   10a44:	6687 0002 6dab 0002 713f 0002 6d8d 0002     .f...m..?q...m..
   10a54:	6d4c 0002 72c4 0002 6be5 0002 6da5 0002     Lm...r...k...m..
   10a64:	6df1 0002 7512 0002 717f 0002 7350 0002     .m...u...q..Ps..
   10a74:	722c 0002 6943 0002 71d3 0002 75f8 0002     ,r..Ci...q...u..
   10a84:	706b 0002 6aa7 0002 71f5 0002 738d 0002     kp...j...q...s..
   10a94:	76b0 0002 6f83 0002 68e3 0002 744a 0002     .v...o...h..Jt..
   10aa4:	7297 0002 6fb3 0002 6c84 0002 6ebe 0002     .r...o...l...n..
   10ab4:	6d35 0002 6de5 0002 6eb7 0002 75af 0002     5m...m...n...u..
   10ac4:	6d4b 0002 6e8f 0002 74fe 0002 688a 0002     Km...n...t...h..
   10ad4:	6c1d 0002 76a4 0002 6a5c 0002 6c40 0002     .l...v..\j..@l..
   10ae4:	6eb5 0002 6e48 0002 6cbc 0002 7429 0002     .n..Hn...l..)t..
   10af4:	726c 0002 7163 0002 7350 0002 6de6 0002     lr..cq..Ps...m..
   10b04:	6e94 0002 6762 0002 751b 0002 7146 0002     .n..bg...u..Fq..
   10b14:	70bf 0002 690a 0002 6d56 0002 7301 0002     .p...i..Vm...s..
   10b24:	6aac 0002 6f6a 0002 6f7d 0002 6dc6 0002     .j..jo..}o...m..
   10b34:	70fa 0002 6e28 0002 6c93 0002 6a3e 0002     .p..(n...l..>j..
   10b44:	6de7 0002 6dd8 0002 6db3 0002 715a 0002     .m...m...m..Zq..
   10b54:	6d1b 0002 6e4b 0002 657a 0002 6f75 0002     .m..Kn..ze..uo..
   10b64:	735d 0002 7080 0002 7371 0002 7474 0002     ]s...p..qs..tt..
   10b74:	6d59 0002 6b75 0002 7005 0002 70c0 0002     Ym..uk...p...p..
   10b84:	6e7d 0002 6c6b 0002 74ad 0002 6d13 0002     }n..kl...t...m..
   10b94:	6e02 0002 71b2 0002 6ddd 0002 6fea 0002     .n...q...m...o..
   10ba4:	7393 0002 6ef4 0002 6845 0002 6ffd 0002     .s...n..Eh...o..
   10bb4:	6889 0002 6e2f 0002 71c4 0002 69be 0002     .h../n...q...i..
   10bc4:	6d68 0002 6b61 0002 6f65 0002 716a 0002     hm..ak..eo..jq..
   10bd4:	725b 0002 75ee 0002 6f9a 0002 70c0 0002     [r...u...o...p..
   10be4:	6a73 0002 6d9d 0002 6e1c 0002 6be6 0002     sj...m...n...k..
   10bf4:	737f 0002 6918 0002 739f 0002 7697 0002     .s...i...s...v..
   10c04:	68ec 0002 7388 0002 6833 0002 732d 0002     .h...s..3h..-s..
   10c14:	6e21 0002 70ad 0002 755d 0002 6ba8 0002     !n...p..]u...k..
   10c24:	71e4 0002 6ba7 0002 6960 0002 67a9 0002     .q...k..`i...g..
   10c34:	6bd6 0002 72e7 0002 6cab 0002 707e 0002     .k...r...l..~p..
   10c44:	6e18 0002 7192 0002 7380 0002 7358 0002     .n...q...s..Xs..
   10c54:	6d8b 0002 7012 0002 79a5 0002 7118 0002     .m...p...y...q..
   10c64:	67a6 0002 6c46 0002 6f73 0002 6a33 0002     .g..Fl..so..3j..
   10c74:	7607 0002 72aa 0002 709a 0002 7567 0002     .v...r...p..gu..
   10c84:	7251 0002 7085 0002 6b6f 0002 6cdc 0002     Qr...p..ok...l..
   10c94:	72ad 0002 6ab9 0002 6f73 0002 6aa8 0002     .r...j..so...j..
   10ca4:	6fd9 0002 65ea 0002 71c2 0002 71d0 0002     .o...e...q...q..
   10cb4:	6f58 0002 730f 0002 7015 0002 6f28 0002     Xo...s...p..(o..
   10cc4:	74a3 0002 6ddc 0002 71b7 0002 6f4c 0002     .t...m...q..Lo..
   10cd4:	7878 0002 6e58 0002 71bd 0002 7111 0002     xx..Xn...q...q..
   10ce4:	6fc3 0002 73dd 0002 75a5 0002 70ba 0002     .o...s...u...p..
   10cf4:	79c9 0002 708b 0002 7082 0002 7505 0002     .y...p...p...u..
   10d04:	7023 0002 68d5 0002 784c 0002 6daf 0002     #p...h..Lx...m..
   10d14:	7380 0002 72ce 0002 6f1a 0002 74f2 0002     .s...r...o...t..
   10d24:	7369 0002 6f1d 0002 7099 0002 727a 0002     is...o...p..zr..
   10d34:	6f20 0002 7007 0002 7311 0002 7bed 0002      o...p...s...{..
   10d44:	726c 0002 6d71 0002 7a52 0002 733f 0002     lr..qm..Rz..?s..
   10d54:	6fce 0002 7058 0002 76db 0002 64b7 0002     .o..Xp...v...d..
   10d64:	703f 0002 74fc 0002 7315 0002 7364 0002     ?p...t...s..ds..
   10d74:	74a3 0002 7287 0002 6efe 0002 775f 0002     .t...r...n.._w..
   10d84:	746b 0002 71c5 0002 75df 0002 773f 0002     kt...q...u..?w..
   10d94:	7139 0002 7306 0002 7255 0002 751c 0002     9q...s..Ur...u..
   10da4:	7782 0002 7092 0002 733c 0002 749d 0002     .w...p..<s...t..
   10db4:	71b4 0002 6fee 0002 765b 0002 6e1c 0002     .q...o..[v...n..
   10dc4:	7056 0002 73b2 0002 736c 0002 7baa 0002     Vp...s..ls...{..
   10dd4:	71f0 0002 76d4 0002 79dd 0002 7318 0002     .q...v...y...s..
   10de4:	773d 0002 72f5 0002 6f98 0002 7285 0002     =w...r...o...r..
   10df4:	76f5 0002 78cf 0002 6d4e 0002 6e6f 0002     .v...x..Nm..on..
   10e04:	6c8b 0002 7560 0002 6de6 0002 6e79 0002     .l..`u...m..yn..
   10e14:	7252 0002 7537 0002 79cc 0002 77e2 0002     Rr..7u...y...w..
   10e24:	71c6 0002 6f69 0002 6e3c 0002 7812 0002     .q..io..<n...x..
   10e34:	72f9 0002 769a 0002 716a 0002 75fd 0002     .r...v..jq...u..
   10e44:	7254 0002 70fd 0002 6e1d 0002 701a 0002     Tr...p...n...p..
   10e54:	70e1 0002 6f93 0002 759e 0002 6fbd 0002     .p...o...u...o..
   10e64:	7103 0002 70ad 0002 78de 0002 71e2 0002     .q...p...x...q..
   10e74:	7346 0002 7588 0002 7981 0002 6d5f 0002     Fs...u...y.._m..
   10e84:	7243 0002 6d2f 0002 7792 0002 7652 0002     Cr../m...w..Rv..
   10e94:	7356 0002 7a2f 0002 73d3 0002 75b4 0002     Vs../z...s...u..
   10ea4:	7736 0002 7815 0002 72f9 0002 68e1 0002     6w...x...r...h..
   10eb4:	73ea 0002 7140 0002 71b9 0002 6ef4 0002     .s..@q...q...n..
   10ec4:	740e 0002 7423 0002 706d 0002 7329 0002     .t..#t..mp..)s..
   10ed4:	72a2 0002 6db0 0002 732e 0002 74d4 0002     .r...m...s...t..
   10ee4:	76a4 0002 6e0a 0002 7976 0002 748f 0002     .v...n..vy...t..
   10ef4:	7083 0002 76ad 0002 6b46 0002 71b1 0002     .p...v..Fk...q..
   10f04:	725a 0002 7274 0002 7398 0002 70ac 0002     Zr..tr...s...p..
   10f14:	7259 0002 72e5 0002 7439 0002 6e6c 0002     Yr...r..9t..ln..
   10f24:	69f1 0002 7122 0002 76b8 0002 71b8 0002     .i.."q...v...q..
   10f34:	6940 0002 7566 0002 748e 0002 7348 0002     @i..fu...t..Hs..
   10f44:	748b 0002 7609 0002 772f 0002 71a4 0002     .t...v../w...q..
   10f54:	742c 0002 79c8 0002 6ab7 0002 727e 0002     ,t...y...j..~r..
   10f64:	78fe 0002 6cde 0002 7a09 0002 710e 0002     .x...l...z...q..
   10f74:	7207 0002 741a 0002 7681 0002 6faf 0002     .r...t...v...o..
   10f84:	6c3a 0002 750e 0002 7503 0002 71a4 0002     :l...u...u...q..
   10f94:	70f5 0002 6fcd 0002 733f 0002 7756 0002     .p...o..?s..Vw..
   10fa4:	7670 0002 72af 0002 7731 0002 753a 0002     pv...r..1w..:u..
   10fb4:	77dd 0002 6ebe 0002 6a09 0002 7238 0002     .w...n...j..8r..
   10fc4:	7737 0002 74e0 0002 7721 0002 7013 0002     7w...t..!w...p..
   10fd4:	72cd 0002 7236 0002 7728 0002 6eae 0002     .r..6r..(w...n..
   10fe4:	78ed 0002 75c3 0002 6c7a 0002 727b 0002     .x...u..zl..{r..
   10ff4:	76bc 0002 70d0 0002 727c 0002 6a22 0002     .v...p..|r.."j..
   11004:	743a 0002 6b0c 0002 7156 0002 72a6 0002     :t...k..Vq...r..
   11014:	71b7 0002 71d1 0002 761b 0002 7005 0002     .q...q...v...p..
   11024:	714b 0002 7399 0002 76d9 0002 6e5d 0002     Kq...s...v..]n..
   11034:	6a3c 0002 779e 0002 6ef3 0002 766a 0002     <j...w...n..jv..
   11044:	6c92 0002 6cdf 0002 6dc5 0002 7011 0002     .l...l...m...p..
   11054:	7479 0002 7189 0002 6ee8 0002 7979 0002     yt...q...n..yy..
   11064:	759a 0002 6d80 0002 6e81 0002 702f 0002     .u...m...n../p..
   11074:	6f39 0002 769a 0002 75d6 0002 7232 0002     9o...v...u..2r..
   11084:	77f5 0002 7635 0002 7639 0002 7442 0002     .w..5v..9v..Bt..
   11094:	70c4 0002 70b8 0002 710a 0002 7587 0002     .p...p...q...u..
   110a4:	761e 0002 70d4 0002 7018 0002 7494 0002     .v...p...p...t..
   110b4:	7613 0002 7078 0002 690b 0002 6f22 0002     .v..xp...i.."o..
   110c4:	74be 0002 7365 0002 74db 0002 6d1f 0002     .t..es...t...m..
   110d4:	747a 0002 709e 0002 719f 0002 78c4 0002     zt...p...q...x..
   110e4:	6e3d 0002 708d 0002 6d77 0002 73f6 0002     =n...p..wm...s..
   110f4:	70c0 0002 7601 0002 736f 0002 6f20 0002     .p...v..os.. o..
   11104:	71c4 0002 6dd6 0002 77b9 0002 773f 0002     .q...m...w..?w..
   11114:	7396 0002 72a3 0002 6f35 0002 74f3 0002     .s...r..5o...t..
   11124:	6d50 0002 74da 0002 71d6 0002 6c75 0002     Pm...t...q..ul..
   11134:	6dcf 0002 6dab 0002 73b5 0002 7039 0002     .m...m...s..9p..
   11144:	7297 0002 73fa 0002 7501 0002 6d9a 0002     .r...s...u...m..
   11154:	71c1 0002 71f2 0002 75ea 0002 7099 0002     .q...q...u...p..
   11164:	7308 0002 7181 0002 6b45 0002 70bd 0002     .s...q..Ek...p..
   11174:	7106 0002 7829 0002 7256 0002 7c2e 0002     .q..)x..Vr...|..
   11184:	7290 0002 7bd9 0002 7295 0002 743b 0002     .r...{...r..;t..
   11194:	7086 0002 70d3 0002 771e 0002 78bb 0002     .p...p...w...x..
   111a4:	79a9 0002 6cfe 0002 70b0 0002 7308 0002     .y...l...p...s..
   111b4:	7006 0002 6e16 0002 73c4 0002 76ca 0002     .p...n...s...v..
   111c4:	702b 0002 741a 0002 735c 0002 6d90 0002     +p...t..\s...m..
   111d4:	7736 0002 6e29 0002 757e 0002 6eb2 0002     6w..)n..~u...n..
   111e4:	79e1 0002 6fd2 0002 75b8 0002 71e6 0002     .y...o...u...q..
   111f4:	7339 0002 76c8 0002 7387 0002 72e9 0002     9s...v...s...r..
   11204:	71ae 0002 6d77 0002 7694 0002 730c 0002     .q..wm...v...s..
   11214:	7b31 0002 73b2 0002 6c98 0002 71ae 0002     1{...s...l...q..
   11224:	75b9 0002 72de 0002 6dc8 0002 7390 0002     .u...r...m...s..
   11234:	755d 0002 77f8 0002 7757 0002 72df 0002     ]u...w..Ww...r..
   11244:	6eb4 0002 77c1 0002 7087 0002 731f 0002     .n...w...p...s..
   11254:	6d24 0002 76df 0002 7120 0002 69d6 0002     $m...v.. q...i..
   11264:	7722 0002 71df 0002 7403 0002 712f 0002     "w...q...t../q..
   11274:	6f9e 0002 7037 0002 706b 0002 73ae 0002     .o..7p..kp...s..
   11284:	7947 0002 7630 0002 71c9 0002 720f 0002     Gy..0v...q...r..
   11294:	6fb8 0002 7004 0002 72d1 0002 7032 0002     .o...p...r..2p..
   112a4:	7213 0002 6f82 0002 6f7c 0002 7892 0002     .r...o..|o...x..
   112b4:	73cf 0002 76c3 0002 6fdb 0002 7522 0002     .s...v...o.."u..
   112c4:	7238 0002 70ec 0002 7363 0002 7142 0002     8r...p..cs..Bq..
   112d4:	72c1 0002 734f 0002 70fb 0002 7748 0002     .r..Os...p..Hw..
   112e4:	6906 0002 73f7 0002 79f3 0002 728a 0002     .i...s...y...r..
   112f4:	6f72 0002 7303 0002 73b3 0002 7488 0002     ro...s...s...t..
   11304:	6d38 0002 7584 0002 79b6 0002 70cf 0002     8m...u...y...p..
   11314:	6e91 0002 76f3 0002 75e4 0002 763a 0002     .n...v...u..:v..
   11324:	6e45 0002 7c42 0002 70c0 0002 74ea 0002     En..B|...p...t..
   11334:	71d8 0002 6f66 0002 6fb4 0002 6f73 0002     .q..fo...o..so..
   11344:	6f14 0002 7465 0002 68a3 0002 736a 0002     .o..et...h..js..
   11354:	71f0 0002 69fc 0002 6dd1 0002 7b40 0002     .q...i...m..@{..
   11364:	7364 0002 7127 0002 73b7 0002 757f 0002     ds..'q...s...u..
   11374:	6f79 0002 7374 0002 7847 0002 799b 0002     yo..ts..Gx...y..
   11384:	7161 0002 77ed 0002 76e4 0002 75f2 0002     aq...w...v...u..
   11394:	6f5b 0002 7518 0002 6c95 0002 7eb2 0002     [o...u...l...~..
   113a4:	7afb 0002 7789 0002 7346 0002 6ef3 0002     .z...w..Fs...n..
   113b4:	7297 0002 7585 0002 71ce 0002 7246 0002     .r...u...q..Fr..
   113c4:	718d 0002 72c6 0002 7a86 0002 76d9 0002     .q...r...z...v..
   113d4:	7751 0002 71a8 0002 7095 0002 7379 0002     Qw...q...p..ys..
   113e4:	7929 0002 757a 0002 6fcf 0002 7444 0002     )y..zu...o..Dt..
   113f4:	7266 0002 6c6c 0002 79e9 0002 6fcf 0002     fr..ll...y...o..
   11404:	73f9 0002 6d82 0002 7698 0002 6d80 0002     .s...m...v...m..
   11414:	78b7 0002 6cfb 0002 7701 0002 6b58 0002     .x...l...w..Xk..
   11424:	7526 0002 7160 0002 7673 0002 73c4 0002     &u..`q..sv...s..
   11434:	7755 0002 78e1 0002 73ee 0002 717a 0002     Uw...x...s..zq..
   11444:	6ce7 0002 7529 0002 7716 0002 7340 0002     .l..)u...w..@s..
   11454:	72f9 0002 76c1 0002 6e24 0002 6c07 0002     .r...v..$n...l..
   11464:	73d4 0002 76d0 0002 6aab 0002 72e9 0002     .s...v...j...r..
   11474:	71d3 0002 7c3b 0002 70b6 0002 77c4 0002     .q..;|...p...w..
   11484:	74ba 0002 742a 0002 75e4 0002 749f 0002     .t..*t...u...t..
   11494:	738c 0002 70ab 0002 7314 0002 6fb4 0002     .s...p...s...o..
   114a4:	7787 0002 6ea0 0002 6f6a 0002 6ecd 0002     .w...n..jo...n..
   114b4:	7841 0002 734d 0002 7020 0002 798f 0002     Ax..Ms.. p...y..
   114c4:	7403 0002 769a 0002 6f16 0002 7646 0002     .t...v...o..Fv..
   114d4:	7519 0002 7bb1 0002 756e 0002 73be 0002     .u...{..nu...s..
   114e4:	70d3 0002 77be 0002 73e9 0002 6afc 0002     .p...w...s...j..
   114f4:	743f 0002 7009 0002 7671 0002 756e 0002     ?t...p..qv..nu..
   11504:	753e 0002 7724 0002 73ff 0002 7448 0002     >u..$w...s..Ht..
   11514:	7452 0002 7602 0002 73b4 0002 75bc 0002     Rt...v...s...u..
   11524:	7788 0002 715a 0002 73df 0002 6af7 0002     .w..Zq...s...j..
   11534:	73e1 0002 6bad 0002 6ed7 0002 739c 0002     .s...k...n...s..
   11544:	769b 0002 7848 0002 7951 0002 7b80 0002     .v..Hx..Qy...{..
   11554:	7824 0002 7b15 0002 753e 0002 6fcb 0002     $x...{..>u...o..
   11564:	717a 0002 6a50 0002 6ec3 0002 6f65 0002     zq..Pj...n..eo..
   11574:	7366 0002 7010 0002 6bce 0002 741e 0002     fs...p...k...t..
   11584:	7c20 0002 77e5 0002 76a7 0002 7146 0002      |...w...v..Fq..
   11594:	7127 0002 7455 0002 766e 0002 7317 0002     'q..Ut..nv...s..
   115a4:	6fec 0002 6f84 0002 72e7 0002 6d5e 0002     .o...o...r..^m..
   115b4:	74d5 0002 796d 0002 7731 0002 73c3 0002     .t..my..1w...s..
   115c4:	6d4b 0002 6c5c 0002 68a6 0002 7681 0002     Km..\l...h...v..
   115d4:	72af 0002 6e9d 0002 7744 0002 6fbc 0002     .r...n..Dw...o..
   115e4:	7199 0002 78d8 0002 7369 0002 7847 0002     .q...x..is..Gx..
   115f4:	755b 0002 7452 0002 6eb7 0002 71d0 0002     [u..Rt...n...q..
   11604:	7501 0002 71af 0002 70de 0002 74f6 0002     .u...q...p...t..
   11614:	71e1 0002 7240 0002 743b 0002 76f8 0002     .q..@r..;t...v..
   11624:	7056 0002 737f 0002 75cc 0002 725d 0002     Vp...s...u..]r..
   11634:	7507 0002 6c8b 0002 6ee4 0002 6fe6 0002     .u...l...n...o..
   11644:	7068 0002 7033 0002 710d 0002 7078 0002     hp..3p...q..xp..
   11654:	6faa 0002 7674 0002 7b0c 0002 6a6b 0002     .o..tv...{..kj..
   11664:	722c 0002 7d35 0002 7139 0002 737a 0002     ,r..5}..9q..zs..
   11674:	72c5 0002 7548 0002 74ae 0002 7276 0002     .r..Hu...t..vr..
   11684:	7304 0002 72ef 0002 71c3 0002 73d3 0002     .s...r...q...s..
   11694:	7248 0002 732b 0002 6e96 0002 6e77 0002     Hr..+s...n..wn..
   116a4:	6fd3 0002 748a 0002 742f 0002 741c 0002     .o...t../t...t..
   116b4:	6d11 0002 749a 0002 6fdc 0002 6d49 0002     .m...t...o..Im..
   116c4:	6fd0 0002 7391 0002 6a67 0002 6a5c 0002     .o...s..gj..\j..
   116d4:	6e52 0002 70d4 0002 7137 0002 7946 0002     Rn...p..7q..Fy..
   116e4:	73ea 0002 6efe 0002 7312 0002 6ee4 0002     .s...n...s...n..
   116f4:	72b0 0002 7058 0002 7304 0002 70a4 0002     .r..Xp...s...p..
   11704:	76ac 0002 6a46 0002 71e2 0002 779e 0002     .v..Fj...q...w..
   11714:	744e 0002 750c 0002 746e 0002 76db 0002     Nt...u..nt...v..
   11724:	75c3 0002 718c 0002 7259 0002 6e3c 0002     .u...q..Yr..<n..
   11734:	70ec 0002 731d 0002 7285 0002 749b 0002     .p...s...r...t..
   11744:	73dc 0002 73a0 0002 6c88 0002 7bef 0002     .s...s...l...{..
   11754:	7265 0002 7748 0002 796e 0002 75b8 0002     er..Hw..ny...u..
   11764:	722c 0002 7323 0002 7960 0002 6fd0 0002     ,r..#s..`y...o..
   11774:	70e6 0002 6a51 0002 766d 0002 7802 0002     .p..Qj..mv...x..
   11784:	714c 0002 7191 0002 700d 0002 72ac 0002     Lq...q...p...r..
   11794:	6c60 0002 6b29 0002 6b17 0002 6969 0002     `l..)k...k..ii..
   117a4:	6f7a 0002 7378 0002 71f0 0002 7149 0002     zo..xs...q..Iq..
   117b4:	7b30 0002 6c0c 0002 7905 0002 78d8 0002     0{...l...y...x..
   117c4:	747a 0002 6bb9 0002 746d 0002 7254 0002     zt...k..mt..Tr..
   117d4:	7008 0002 73c2 0002 6e86 0002 73e0 0002     .p...s...n...s..
   117e4:	7433 0002 6eb3 0002 78d8 0002 6f9d 0002     3t...n...x...o..
   117f4:	7539 0002 70e6 0002 77cd 0002 7424 0002     9u...p...w..$t..
   11804:	736c 0002 6c6b 0002 6dd1 0002 728f 0002     ls..kl...m...r..
   11814:	71bb 0002 7cb6 0002 7203 0002 746f 0002     .q...|...r..ot..
   11824:	70e6 0002 6f74 0002 6a86 0002 741f 0002     .p..to...j...t..
   11834:	6fc9 0002 7665 0002 754a 0002 7543 0002     .o..ev..Ju..Cu..
   11844:	6b04 0002 6e44 0002 71f4 0002 7301 0002     .k..Dn...q...s..
   11854:	6e73 0002 756f 0002 792e 0002 799b 0002     sn..ou...y...y..
   11864:	73cc 0002 795f 0002 7375 0002 726b 0002     .s.._y..us..kr..
   11874:	7541 0002 77e7 0002 76cb 0002 71e3 0002     Au...w...v...q..
   11884:	77df 0002 6f3b 0002 7a66 0002 72b0 0002     .w..;o..fz...r..
   11894:	7bf3 0002 760e 0002 71cf 0002 6d9a 0002     .{...v...q...m..
   118a4:	7185 0002 6f28 0002 7493 0002 73f5 0002     .q..(o...t...s..
   118b4:	747e 0002 6cb3 0002 75f3 0002 763e 0002     ~t...l...u..>v..
   118c4:	6bd0 0002 6ef8 0002 7876 0002 70ea 0002     .k...n..vx...p..
   118d4:	7640 0002 74d9 0002 7c18 0002 701d 0002     @v...t...|...p..
   118e4:	763c 0002 736a 0002 6cba 0002 6ca5 0002     <v..js...l...l..
   118f4:	7478 0002 743b 0002 7357 0002 7595 0002     xt..;t..Ws...u..
   11904:	7adf 0002 725b 0002 798f 0002 6ddd 0002     .z..[r...y...m..
   11914:	713a 0002 7718 0002 7514 0002 737c 0002     :q...w...u..|s..
   11924:	7da7 0002 7ef1 0002 7cdc 0002 78ef 0002     .}...~...|...x..
   11934:	7df5 0002 7b6a 0002 7c44 0002 7e16 0002     .}..j{..D|...~..
   11944:	78dc 0002 7df8 0002 754a 0002 80c0 0002     .x...}..Ju......
   11954:	786a 0002 7a4f 0002 7b56 0002 7abb 0002     jx..Oz..V{...z..
   11964:	8139 0002 7b53 0002 791d 0002 7da9 0002     9...S{...y...}..
   11974:	7c76 0002 8090 0002 7495 0002 78e4 0002     v|.......t...x..
   11984:	7981 0002 74a5 0002 7887 0002 79b5 0002     .y...t...x...y..
   11994:	74e7 0002 77a9 0002 7433 0002 771b 0002     .t...w..3t...w..
   119a4:	7981 0002 79ae 0002 7a16 0002 767b 0002     .y...y...z..{v..
   119b4:	757f 0002 7b55 0002 801a 0002 7a0b 0002     .u..U{.......z..
   119c4:	7c25 0002 7b0e 0002 7d71 0002 7dbc 0002     %|...{..q}...}..
   119d4:	7a76 0002 79bf 0002 764b 0002 7a2e 0002     vz...y..Kv...z..
   119e4:	807f 0002 7526 0002 7fbd 0002 7b49 0002     ....&u......I{..
   119f4:	7d43 0002 7d19 0002 76d4 0002 78e6 0002     C}...}...v...x..
   11a04:	7c78 0002 7589 0002 7e87 0002 7c25 0002     x|...u...~..%|..
   11a14:	79df 0002 7ef4 0002 76b4 0002 7e0b 0002     .y...~...v...~..
   11a24:	702f 0002 7a9c 0002 7d9a 0002 76e6 0002     /p...z...}...v..
   11a34:	7ab3 0002 784c 0002 7d5f 0002 7fd1 0002     .z..Lx.._}......
   11a44:	77ca 0002 7476 0002 7627 0002 7598 0002     .w..vt..'v...u..
   11a54:	7a19 0002 7bb8 0002 7cac 0002 7f19 0002     .z...{...|......
   11a64:	8219 0002 7c08 0002 7d4d 0002 78be 0002     .....|..M}...x..
   11a74:	7b8b 0002 7b63 0002 7ab9 0002 7ff0 0002     .{..c{...z......
   11a84:	7a7c 0002 735f 0002 7a16 0002 7ae3 0002     |z.._s...z...z..
   11a94:	747a 0002 7b42 0002 757d 0002 7b51 0002     zt..B{..}u..Q{..
   11aa4:	813c 0002 7a7d 0002 7d13 0002 7649 0002     <...}z...}..Iv..
   11ab4:	8230 0002 7307 0002 790a 0002 79fa 0002     0....s...y...y..
   11ac4:	72bd 0002 783c 0002 7f17 0002 7e36 0002     .r..<x......6~..
   11ad4:	7a60 0002 7cc1 0002 7fa9 0002 7a1e 0002     `z...|.......z..
   11ae4:	795f 0002 79c6 0002 7836 0002 79f9 0002     _y...y..6x...y..
   11af4:	798a 0002 7dd6 0002 787c 0002 7419 0002     .y...}..|x...t..
   11b04:	72c5 0002 7d89 0002 7bfc 0002 7635 0002     .r...}...{..5v..
   11b14:	6ff0 0002 792f 0002 7264 0002 7116 0002     .o../y..dr...q..
   11b24:	79f7 0002 7bd7 0002 79b5 0002 73d8 0002     .y...{...y...s..
   11b34:	79d4 0002 7990 0002 775f 0002 7a2a 0002     .y...y.._w..*z..
   11b44:	782b 0002 7333 0002 78df 0002 763b 0002     +x..3s...x..;v..
   11b54:	7453 0002 7ddc 0002 7502 0002 7bdf 0002     St...}...u...{..
   11b64:	8015 0002 76af 0002 75a4 0002 7969 0002     .....v...u..iy..
   11b74:	7839 0002 7926 0002 7c47 0002 83bd 0002     9x..&y..G|......
   11b84:	75cb 0002 79b6 0002 79c8 0002 7f26 0002     .u...y...y..&...
   11b94:	743e 0002 7bf5 0002 74e4 0002 7a79 0002     >t...{...t..yz..
   11ba4:	7768 0002 7693 0002 7c47 0002 8071 0002     hw...v..G|..q...
   11bb4:	7b31 0002 791a 0002 7a22 0002 7fb3 0002     1{...y.."z......
   11bc4:	7ede 0002 7cd2 0002 7f90 0002 73b2 0002     .~...|.......s..
   11bd4:	7e6b 0002 74ba 0002 7827 0002 786d 0002     k~...t..'x..mx..
   11be4:	7b2b 0002 7361 0002 79df 0002 7d65 0002     +{..as...y..e}..
   11bf4:	791a 0002 7a2d 0002 7f59 0002 78f9 0002     .y..-z..Y....x..
   11c04:	80a7 0002 739f 0002 7821 0002 7bf5 0002     .....s..!x...{..
   11c14:	7f1c 0002 7cde 0002 786d 0002 77ac 0002     .....|..mx...w..
   11c24:	7a5d 0002 7b27 0002 72d0 0002 7aba 0002     ]z..'{...r...z..
   11c34:	766a 0002 7206 0002 7631 0002 7b5b 0002     jv...r..1v..[{..
   11c44:	84c2 0002 7c45 0002 7bd6 0002 7acb 0002     ....E|...{...z..
   11c54:	7fb1 0002 77b9 0002 7a78 0002 7a35 0002     .....w..xz..5z..
   11c64:	7810 0002 7d14 0002 7dc0 0002 7b2b 0002     .x...}...}..+{..
   11c74:	7b93 0002 7ed2 0002 7092 0002 75ab 0002     .{...~...p...u..
   11c84:	7afe 0002 7fb6 0002 7f8f 0002 7d69 0002     .z..........i}..
   11c94:	7907 0002 780c 0002 7c0c 0002 76a2 0002     .y...x...|...v..
   11ca4:	7e7b 0002 7633 0002 78c1 0002 75c1 0002     {~..3v...x...u..
   11cb4:	798f 0002 7cc3 0002 7c9c 0002 7de4 0002     .y...|...|...}..
   11cc4:	7764 0002 77f5 0002 7561 0002 7b46 0002     dw...w..au..F{..
   11cd4:	7b8f 0002 7a0a 0002 747f 0002 7906 0002     .{...z...t...y..
   11ce4:	814d 0002 7d37 0002 7ee6 0002 7845 0002     M...7}...~..Ex..
   11cf4:	7809 0002 7c75 0002 7882 0002 7be0 0002     .x..u|...x...{..
   11d04:	79e2 0002 7e7b 0002 75f1 0002 79fc 0002     .y..{~...u...y..
   11d14:	7af1 0002 7df7 0002 7e14 0002 7e7c 0002     .z...}...~..|~..
   11d24:	739b 0002 74cb 0002 75fe 0002 7a26 0002     .s...t...u..&z..
   11d34:	7bab 0002 7b20 0002 7a65 0002 7ba3 0002     .{.. {..ez...{..
   11d44:	768d 0002 7643 0002 7a25 0002 73c1 0002     .v..Cv..%z...s..
   11d54:	7d42 0002 79c6 0002 7dc7 0002 7948 0002     B}...y...}..Hy..
   11d64:	79de 0002 8144 0002 75bb 0002 803b 0002     .y..D....u..;...
   11d74:	7b90 0002 79cf 0002 760c 0002 7a0b 0002     .{...y...v...z..
   11d84:	7ce3 0002 76e1 0002 77c5 0002 7c2c 0002     .|...v...w..,|..
   11d94:	7dd2 0002 7821 0002 808a 0002 791a 0002     .}..!x.......y..
   11da4:	7d92 0002 76aa 0002 7fa9 0002 784b 0002     .}...v......Kx..
   11db4:	7aea 0002 790f 0002 763d 0002 7381 0002     .z...y..=v...s..
   11dc4:	7ab8 0002 7953 0002 7dd9 0002 82c1 0002     .z..Sy...}......
   11dd4:	7ae4 0002 7b85 0002 7a31 0002 78db 0002     .z...{..1z...x..
   11de4:	77b5 0002 792a 0002 77b3 0002 712f 0002     .w..*y...w../q..
   11df4:	76d2 0002 7943 0002 7c73 0002 7950 0002     .v..Cy..s|..Py..
   11e04:	8034 0002 7321 0002 79ed 0002 7857 0002     4...!s...y..Wx..
   11e14:	7428 0002 7c5a 0002 7882 0002 7be2 0002     (t..Z|...x...{..
   11e24:	79d5 0002 7f90 0002 850f 0002 7d04 0002     .y...........}..
   11e34:	7d97 0002 79f3 0002 7c66 0002 7f95 0002     .}...y..f|......
   11e44:	7994 0002 7782 0002 7b23 0002 72f3 0002     .y...w..#{...r..
   11e54:	753d 0002 74e5 0002 7786 0002 7d45 0002     =u...t...w..E}..
   11e64:	7b42 0002 7bf4 0002 73ee 0002 7cac 0002     B{...{...s...|..
   11e74:	7c18 0002 7bcd 0002 800c 0002 8149 0002     .|...{......I...
   11e84:	7663 0002 7cb3 0002 7e11 0002 77ea 0002     cv...|...~...w..
   11e94:	7a37 0002 7d68 0002 7d0e 0002 81ef 0002     7z..h}...}......
   11ea4:	7b6c 0002 79f4 0002 7a79 0002 78c8 0002     l{...y..yz...x..
   11eb4:	7b87 0002 7c53 0002 7b2c 0002 7b5e 0002     .{..S|..,{..^{..
   11ec4:	7fdd 0002 78d5 0002 7ec6 0002 7885 0002     .....x...~...x..
   11ed4:	8175 0002 758a 0002 8211 0002 7bec 0002     u....u.......{..
   11ee4:	7877 0002 7663 0002 7dff 0002 7b25 0002     wx..cv...}..%{..
   11ef4:	7ad1 0002 7891 0002 7cb3 0002 783d 0002     .z...x...|..=x..
   11f04:	7974 0002 7f6f 0002 77d3 0002 8031 0002     ty..o....w..1...
   11f14:	7ecf 0002 7811 0002 757f 0002 7483 0002     .~...x...u...t..
   11f24:	7767 0002 7e58 0002 7232 0002 76c2 0002     gw..X~..2r...v..
   11f34:	7f88 0002 7cef 0002 759c 0002 7567 0002     .....|...u..gu..
   11f44:	7717 0002 7e17 0002 7ad9 0002 7dcd 0002     .w...~...z...}..
   11f54:	7d5f 0002 7962 0002 76d8 0002 7273 0002     _}..by...v..sr..
   11f64:	7f18 0002 7a95 0002 7b94 0002 7669 0002     .....z...{..iv..
   11f74:	74c0 0002 7ec6 0002 7de6 0002 7e67 0002     .t...~...}..g~..
   11f84:	73e1 0002 7cce 0002 7ad4 0002 7d24 0002     .s...|...z..$}..
   11f94:	77f1 0002 779a 0002 7458 0002 7a43 0002     .w...w..Xt..Cz..
   11fa4:	79e0 0002 776c 0002 7ad2 0002 7b36 0002     .y..lw...z..6{..
   11fb4:	79d3 0002 7750 0002 7892 0002 7cf6 0002     .y..Pw...x...|..
   11fc4:	7f5e 0002 7cba 0002 7bbb 0002 80a7 0002     ^....|...{......
   11fd4:	7ba1 0002 7719 0002 7de8 0002 7440 0002     .{...w...}..@t..
   11fe4:	7a4c 0002 7d33 0002 781d 0002 7c26 0002     Lz..3}...x..&|..
   11ff4:	78b3 0002 78c8 0002 7dba 0002 764f 0002     .x...x...}..Ov..
   12004:	76c9 0002 7bb7 0002 785f 0002 7970 0002     .v...{.._x..py..
   12014:	76e6 0002 7717 0002 73b0 0002 77f5 0002     .v...w...s...w..
   12024:	7918 0002 7767 0002 78f3 0002 7e4e 0002     .y..gw...x..N~..
   12034:	8046 0002 7a3e 0002 7958 0002 7e7b 0002     F...>z..Xy..{~..
   12044:	7c99 0002 765e 0002 7d73 0002 7e96 0002     .|..^v..s}...~..
   12054:	7864 0002 770a 0002 7310 0002 7dbe 0002     dx...w...s...}..
   12064:	7ebd 0002 7638 0002 78dd 0002 79bd 0002     .~..8v...x...y..
   12074:	7a96 0002 7922 0002 7706 0002 7718 0002     .z.."y...w...w..
   12084:	75dc 0002 7aba 0002 789a 0002 784f 0002     .u...z...x..Ox..
   12094:	780b 0002 73f1 0002 7e9b 0002 8026 0002     .x...s...~..&...
   120a4:	7e6e 0002 7881 0002 7e2f 0002 7ca2 0002     n~...x../~...|..
   120b4:	762d 0002 7ab5 0002 7aad 0002 77db 0002     -v...z...z...w..
   120c4:	79b4 0002 8043 0002 802d 0002 78a5 0002     .y..C...-....x..
   120d4:	7549 0002 7aeb 0002 784d 0002 75c7 0002     Iu...z..Mx...u..
   120e4:	7ee9 0002 76a1 0002 7c25 0002 7fc8 0002     .~...v..%|......
   120f4:	713b 0002 7a08 0002 7bc8 0002 7c7c 0002     ;q...z...{..||..
   12104:	74a8 0002 779e 0002 75c8 0002 7e02 0002     .t...w...u...~..
   12114:	78f3 0002 7985 0002 758a 0002 7ff9 0002     .x...y...u......
   12124:	7b56 0002 76d3 0002 7a72 0002 7671 0002     V{...v..rz..qv..
   12134:	73b5 0002 7765 0002 7aa0 0002 783d 0002     .s..ew...z..=x..
   12144:	8251 0002 79d0 0002 787b 0002 7676 0002     Q....y..{x..vv..
   12154:	7b3c 0002 75e7 0002 7657 0002 7679 0002     <{...u..Wv..yv..
   12164:	7ca6 0002 75d3 0002 755c 0002 79a7 0002     .|...u..\u...y..
   12174:	812e 0002 72f0 0002 7b6b 0002 7fd4 0002     .....r..k{......
   12184:	798d 0002 808f 0002 71c3 0002 7b9f 0002     .y.......q...{..
   12194:	7de1 0002 7ad7 0002 7c5a 0002 8051 0002     .}...z..Z|..Q...
   121a4:	75ba 0002 8041 0002 77d4 0002 7ba3 0002     .u..A....w...{..
   121b4:	7b6e 0002 7966 0002 7d55 0002 7cd5 0002     n{..fy..U}...|..
   121c4:	7dd6 0002 7657 0002 7da1 0002 798b 0002     .}..Wv...}...y..
   121d4:	79b1 0002 77ea 0002 7942 0002 7c66 0002     .y...w..By..f|..
   121e4:	77e3 0002 7d08 0002 7287 0002 7a1a 0002     .w...}...r...z..
   121f4:	76e2 0002 7b8e 0002 796e 0002 7c1c 0002     .v...{..ny...|..
   12204:	7b03 0002 776a 0002 7788 0002 78b2 0002     .{..jw...w...x..
   12214:	78e7 0002 7703 0002 7956 0002 7905 0002     .x...w..Vy...y..
   12224:	7991 0002 7dd5 0002 7894 0002 7a4b 0002     .y...}...x..Kz..
   12234:	72d7 0002 7a8e 0002 7afa 0002 84b0 0002     .r...z...z......
   12244:	77ba 0002 7f17 0002 7e24 0002 7ba4 0002     .w......$~...{..
   12254:	7cf9 0002 73e7 0002 7e17 0002 76df 0002     .|...s...~...v..
   12264:	77c5 0002 7fd5 0002 7473 0002 7a02 0002     .w......st...z..
   12274:	7496 0002 787d 0002 728f 0002 83ac 0002     .t..}x...r......
   12284:	7dd7 0002 7700 0002 76d5 0002 7520 0002     .}...w...v.. u..
   12294:	768a 0002 7855 0002 7abc 0002 77e3 0002     .v..Ux...z...w..
   122a4:	7c3e 0002 7b59 0002 7d91 0002 7c65 0002     >|..Y{...}..e|..
   122b4:	7c7d 0002 754a 0002 7c9e 0002 7981 0002     }|..Ju...|...y..
   122c4:	7694 0002 7763 0002 7a5d 0002 7356 0002     .v..cw..]z..Vs..
   122d4:	7cd4 0002 80ab 0002 76fe 0002 7eec 0002     .|.......v...~..
   122e4:	7a68 0002 7d56 0002 7363 0002 7587 0002     hz..V}..cs...u..
   122f4:	7e91 0002 757a 0002 7b45 0002 7499 0002     .~..zu..E{...t..
   12304:	796d 0002 7e34 0002 7ca8 0002 8106 0002     my..4~...|......
   12314:	773d 0002 7bb5 0002 7c89 0002 7891 0002     =w...{...|...x..
   12324:	7c8a 0002 7c86 0002 73de 0002 76e3 0002     .|...|...s...v..
   12334:	7d41 0002 77c8 0002 7823 0002 76e6 0002     A}...w..#x...v..
   12344:	7c70 0002 7f31 0002 7cb0 0002 7c2d 0002     p|..1....|..-|..
   12354:	80f7 0002 7a15 0002 7fe0 0002 80c0 0002     .....z..........
   12364:	72f6 0002 7bd9 0002 799f 0002 7d59 0002     .r...{...y..Y}..
   12374:	72e8 0002 82ff 0002 80ad 0002 7591 0002     .r...........u..
   12384:	79fb 0002 7da7 0002 7bef 0002 79d6 0002     .y...}...{...y..
   12394:	7a52 0002 74db 0002 8363 0002 7966 0002     Rz...t..c...fy..
   123a4:	7b36 0002 7c3c 0002 76d1 0002 789d 0002     6{..<|...v...x..
   123b4:	7abb 0002 7ac7 0002 78cf 0002 783b 0002     .z...z...x..;x..
   123c4:	7a5c 0002 7f9d 0002 77c6 0002 775a 0002     \z.......w..Zw..
   123d4:	7f75 0002 7dea 0002 780a 0002 7407 0002     u....}...x...t..
   123e4:	7929 0002 75fc 0002 7f42 0002 7fe7 0002     )y...u..B.......
   123f4:	78f5 0002 731e 0002 7ac5 0002 7892 0002     .x...s...z...x..
   12404:	78b1 0002 73dc 0002 788d 0002 7a87 0002     .x...s...x...z..
   12414:	7ee6 0002 7c73 0002 7382 0002 75c3 0002     .~..s|...s...u..
   12424:	7d2e 0002 7742 0002 7900 0002 7ec0 0002     .}..Bw...y...~..
   12434:	7be1 0002 7a59 0002 7c3f 0002 7769 0002     .{..Yz..?|..iw..
   12444:	7dc5 0002 7883 0002 7b2f 0002 7d36 0002     .}...x../{..6}..
   12454:	7ccb 0002 737f 0002 7b80 0002 7ab4 0002     .|...s...{...z..
   12464:	81bb 0002 7667 0002 7a1e 0002 7b3f 0002     ....gv...z..?{..
   12474:	7ec7 0002 78ea 0002 749f 0002 7915 0002     .~...x...t...y..
   12484:	7340 0002 766c 0002 7fee 0002 7971 0002     @s..lv......qy..
   12494:	72e3 0002 7f97 0002 7949 0002 8318 0002     .r......Iy......
   124a4:	8273 0002 7601 0002 783a 0002 7ec8 0002     s....v..:x...~..
   124b4:	7e74 0002 8070 0002 7245 0002 7d64 0002     t~..p...Er..d}..
   124c4:	778b 0002 7fb3 0002 7d8c 0002 7a8b 0002     .w.......}...z..
   124d4:	78f0 0002 81fe 0002 789d 0002 7626 0002     .x.......x..&v..
   124e4:	748e 0002 75b0 0002 7d4b 0002 7acf 0002     .t...u..K}...z..
   124f4:	7ba7 0002 7c99 0002 778b 0002 7eff 0002     .{...|...w...~..
   12504:	7660 0002 7da7 0002 7a36 0002 7de7 0002     `v...}..6z...}..
   12514:	7049 0002 79a9 0002 7720 0002 7d90 0002     Ip...y.. w...}..
   12524:	803b 0002 7b83 0002 7a9c 0002 7793 0002     ;....{...z...w..
   12534:	7694 0002 7dbd 0002 7bdf 0002 7fd3 0002     .v...}...{......
   12544:	7920 0002 7ca6 0002 72c9 0002 82ba 0002      y...|...r......
   12554:	81eb 0002 7bda 0002 7a5e 0002 7c05 0002     .....{..^z...|..
   12564:	7b07 0002 7399 0002 84b0 0002 7ca1 0002     .{...s.......|..
   12574:	7f1e 0002 7a50 0002 78f8 0002 7e41 0002     ....Pz...x..A~..
   12584:	7f37 0002 7a83 0002 7d8b 0002 76a1 0002     7....z...}...v..
   12594:	7c0a 0002 7134 0002 782a 0002 78dc 0002     .|..4q..*x...x..
   125a4:	8125 0002 7898 0002 7d9a 0002 80a8 0002     %....x...}......
   125b4:	7f92 0002 7ab9 0002 8333 0002 7b24 0002     .....z..3...${..
   125c4:	76f4 0002 81cf 0002 7a3c 0002 8070 0002     .v......<z..p...
   125d4:	8258 0002 7b5c 0002 7efd 0002 7f64 0002     X...\{...~..d...
   125e4:	7c9e 0002 7f5a 0002 7e21 0002 814b 0002     .|..Z...!~..K...
   125f4:	7bd6 0002 7de7 0002 821a 0002 7b42 0002     .{...}......B{..
   12604:	7d0f 0002 7fae 0002 8117 0002 7c73 0002     .}..........s|..
   12614:	8266 0002 7e58 0002 850e 0002 8217 0002     f...X~..........
   12624:	836b 0002 7f26 0002 8002 0002 7c6f 0002     k...&.......o|..
   12634:	7d78 0002 7d5c 0002 7bb4 0002 7731 0002     x}..\}...{..1w..
   12644:	7c9b 0002 8164 0002 8416 0002 7d7a 0002     .|..d.......z}..
   12654:	7f40 0002 827c 0002 7945 0002 7b8d 0002     @...|...Ey...{..
   12664:	7bd3 0002 7e2f 0002 79b6 0002 7c73 0002     .{../~...y..s|..
   12674:	865b 0002 7e38 0002 7bc4 0002 77d7 0002     [...8~...{...w..
   12684:	7f43 0002 7b29 0002 77ff 0002 793a 0002     C...){...w..:y..
   12694:	8119 0002 7f07 0002 84d5 0002 7e26 0002     ............&~..
   126a4:	7aa4 0002 7e42 0002 811e 0002 7e37 0002     .z..B~......7~..
   126b4:	7d4b 0002 7dc1 0002 7791 0002 7adb 0002     K}...}...w...z..
   126c4:	7b80 0002 794f 0002 7a83 0002 7bf5 0002     .{..Oy...z...{..
   126d4:	8417 0002 8054 0002 7f40 0002 7e1c 0002     ....T...@....~..
   126e4:	7599 0002 7b5c 0002 77c5 0002 7fbd 0002     .u..\{...w......
   126f4:	805c 0002 8731 0002 7e1e 0002 7ae4 0002     \...1....~...z..
   12704:	7bbe 0002 7ed0 0002 7776 0002 82f1 0002     .{...~..vw......
   12714:	7c82 0002 82cc 0002 86fa 0002 7d21 0002     .|..........!}..
   12724:	8001 0002 76c1 0002 7f20 0002 7cae 0002     .....v.. ....|..
   12734:	8022 0002 81b0 0002 7faf 0002 7d7f 0002     "............}..
   12744:	7914 0002 7d29 0002 7cc5 0002 7c0a 0002     .y..)}...|...|..
   12754:	7e7f 0002 7dbf 0002 855a 0002 82a5 0002     .~...}..Z.......
   12764:	7c1c 0002 78c1 0002 7f29 0002 7ee0 0002     .|...x..)....~..
   12774:	7eb2 0002 81d9 0002 7f5b 0002 7e31 0002     .~......[...1~..
   12784:	82be 0002 7821 0002 7d6e 0002 7fd3 0002     ....!x..n}......
   12794:	7e8e 0002 7bb4 0002 7ab7 0002 7f66 0002     .~...{...z..f...
   127a4:	832f 0002 7cd7 0002 7f4e 0002 782e 0002     /....|..N....x..
   127b4:	7bbf 0002 7abf 0002 8057 0002 7cc5 0002     .{...z..W....|..
   127c4:	788d 0002 7e55 0002 7c55 0002 8048 0002     .x..U~..U|..H...
   127d4:	83dd 0002 7dc5 0002 7e6a 0002 7690 0002     .....}..j~...v..
   127e4:	7d88 0002 7956 0002 7605 0002 7a6c 0002     .}..Vy...v..lz..
   127f4:	7c93 0002 7c43 0002 7ff0 0002 7ecb 0002     .|..C|.......~..
   12804:	826c 0002 77ab 0002 809f 0002 87de 0002     l....w..........
   12814:	81a4 0002 7fad 0002 7ce5 0002 7aab 0002     .........|...z..
   12824:	82bf 0002 7b53 0002 7bc2 0002 7cb8 0002     ....S{...{...|..
   12834:	8138 0002 7cfd 0002 7cee 0002 7971 0002     8....|...|..qy..
   12844:	81e7 0002 7d8a 0002 81a6 0002 8094 0002     .....}..........
   12854:	813d 0002 7a28 0002 810c 0002 7f5e 0002     =...(z......^...
   12864:	8399 0002 80a4 0002 7c17 0002 8058 0002     .........|..X...
   12874:	7e3d 0002 7e33 0002 820f 0002 77fa 0002     =~..3~.......w..
   12884:	7986 0002 7e02 0002 7a4a 0002 7d9e 0002     .y...~..Jz...}..
   12894:	7c46 0002 7eb2 0002 7f84 0002 74cd 0002     F|...~.......t..
   128a4:	8095 0002 7c62 0002 7f44 0002 7b6c 0002     ....b|..D...l{..
   128b4:	8241 0002 7958 0002 80d2 0002 79cf 0002     A...Xy.......y..
   128c4:	7777 0002 7d50 0002 7cd5 0002 791f 0002     ww..P}...|...y..
   128d4:	7c05 0002 7bf0 0002 8035 0002 831e 0002     .|...{..5.......
   128e4:	8711 0002 7f73 0002 7c0d 0002 7d7c 0002     ....s....|..|}..
   128f4:	804e 0002 7b85 0002 7e79 0002 8202 0002     N....{..y~......
   12904:	7ed0 0002 77cf 0002 7fbf 0002 8173 0002     .~...w......s...
   12914:	8006 0002 7e8e 0002 7ef8 0002 80a4 0002     .....~...~......
   12924:	8491 0002 7c5f 0002 7adf 0002 84b5 0002     ...._|...z......
   12934:	79c0 0002 7c5e 0002 8103 0002 828a 0002     .y..^|..........
   12944:	7c89 0002 808b 0002 7cba 0002 7d60 0002     .|.......|..`}..
   12954:	7f57 0002 7f03 0002 8004 0002 8162 0002     W...........b...
   12964:	7a8a 0002 7b36 0002 80af 0002 7afa 0002     .z..6{.......z..
   12974:	80fc 0002 8319 0002 80ba 0002 8407 0002     ................
   12984:	7be7 0002 7ba4 0002 8091 0002 819e 0002     .{...{..........
   12994:	803e 0002 7d7b 0002 811f 0002 83e6 0002     >...{}..........
   129a4:	7f01 0002 7bb2 0002 8157 0002 81e6 0002     .....{..W.......
   129b4:	78e6 0002 7f5e 0002 781e 0002 81fe 0002     .x..^....x......
   129c4:	815d 0002 7b2c 0002 7f70 0002 76c7 0002     ]...,{..p....v..
   129d4:	80a8 0002 7c2a 0002 7dad 0002 7cab 0002     ....*|...}...|..
   129e4:	7b3e 0002 8223 0002 8178 0002 7d2d 0002     >{..#...x...-}..
   129f4:	7b0e 0002 7f65 0002 7c0b 0002 7cfc 0002     .{..e....|...|..
   12a04:	74fe 0002 814c 0002 8036 0002 7e89 0002     .t..L...6....~..
   12a14:	7818 0002 79b7 0002 7ef8 0002 7d5f 0002     .x...y...~.._}..
   12a24:	7af7 0002 82c6 0002 7c5e 0002 7c2c 0002     .z......^|..,|..
   12a34:	7e0b 0002 7c70 0002 79dd 0002 7eb5 0002     .~..p|...y...~..
   12a44:	7fa0 0002 85b8 0002 807d 0002 8277 0002     ........}...w...
   12a54:	789b 0002 8132 0002 8223 0002 8256 0002     .x..2...#...V...
   12a64:	77f5 0002 7c64 0002 7c9f 0002 821f 0002     .w..d|...|......
   12a74:	80d3 0002 7ec1 0002 7a05 0002 78da 0002     .....~...z...x..
   12a84:	7b14 0002 78e6 0002 8223 0002 7b2e 0002     .{...x..#....{..
   12a94:	7eeb 0002 7cc4 0002 7ee7 0002 7ff3 0002     .~...|...~......
   12aa4:	80dc 0002 819e 0002 7e45 0002 837a 0002     ........E~..z...
   12ab4:	7668 0002 8176 0002 7fa6 0002 7b62 0002     hv..v.......b{..
   12ac4:	7ad0 0002 7fdd 0002 84bf 0002 78c5 0002     .z...........x..
   12ad4:	8051 0002 80ef 0002 77fe 0002 7bf1 0002     Q........w...{..
   12ae4:	7f30 0002 77ca 0002 76fb 0002 7fd0 0002     0....w...v......
   12af4:	7bc2 0002 8245 0002 810e 0002 7ea5 0002     .{..E........~..
   12b04:	8515 0002 7b68 0002 7ceb 0002 7afd 0002     ....h{...|...z..
   12b14:	8309 0002 84e6 0002 7737 0002 7d7b 0002     ........7w..{}..
   12b24:	8107 0002 8090 0002 72aa 0002 7fbd 0002     .........r......
   12b34:	8299 0002 8281 0002 7bcc 0002 7c70 0002     .........{..p|..
   12b44:	794e 0002 785b 0002 7b34 0002 79ee 0002     Ny..[x..4{...y..
   12b54:	836a 0002 828e 0002 79d3 0002 7fcc 0002     j........y......
   12b64:	7c32 0002 81b8 0002 7ed0 0002 7e49 0002     2|.......~..I~..
   12b74:	7bdc 0002 7c2f 0002 7c0c 0002 823a 0002     .{../|...|..:...
   12b84:	809b 0002 79de 0002 7f56 0002 76d5 0002     .....y..V....v..
   12b94:	7d90 0002 7b30 0002 7ee9 0002 7fce 0002     .}..0{...~......
   12ba4:	84f9 0002 7751 0002 79fc 0002 7eaa 0002     ....Qw...y...~..
   12bb4:	7d38 0002 8254 0002 832c 0002 7ca2 0002     8}..T...,....|..
   12bc4:	7b30 0002 7a9a 0002 82e1 0002 864b 0002     0{...z......K...
   12bd4:	8115 0002 8348 0002 821f 0002 7635 0002     ....H.......5v..
   12be4:	7b60 0002 7cdf 0002 7c32 0002 842f 0002     `{...|..2|../...
   12bf4:	84ed 0002 82bf 0002 7ccc 0002 8083 0002     .........|......
   12c04:	83dd 0002 7d50 0002 7e05 0002 7a22 0002     ....P}...~.."z..
   12c14:	8a64 0002 7e99 0002 783c 0002 8018 0002     d....~..<x......
   12c24:	810a 0002 7cde 0002 7c18 0002 7e59 0002     .....|...|..Y~..
   12c34:	79db 0002 7bd6 0002 7b47 0002 7a38 0002     .y...{..G{..8z..
   12c44:	8111 0002 7e74 0002 7dd9 0002 7e2a 0002     ....t~...}..*~..
   12c54:	7cbd 0002 7f7f 0002 7868 0002 808e 0002     .|......hx......
   12c64:	79ee 0002 8106 0002 8096 0002 7d52 0002     .y..........R}..
   12c74:	7d36 0002 7fde 0002 7dda 0002 7d58 0002     6}.......}..X}..
   12c84:	7db1 0002 77cd 0002 8792 0002 7da4 0002     .}...w.......}..
   12c94:	7c60 0002 826a 0002 81b2 0002 7d93 0002     `|..j........}..
   12ca4:	8335 0002 77fd 0002 7b41 0002 82d9 0002     5....w..A{......
   12cb4:	82a9 0002 87a1 0002 7dec 0002 7ca2 0002     .........}...|..
   12cc4:	7a58 0002 7c22 0002 7e34 0002 80f1 0002     Xz.."|..4~......
   12cd4:	7e98 0002 77c3 0002 80d4 0002 7a77 0002     .~...w......wz..
   12ce4:	78fd 0002 80b4 0002 7a36 0002 7e10 0002     .x......6z...~..
   12cf4:	7ae1 0002 7b7f 0002 8089 0002 7cb4 0002     .z...{.......|..
   12d04:	856b 0002 8180 0002 7afb 0002 8180 0002     k........z......
   12d14:	7d57 0002 8146 0002 761b 0002 813d 0002     W}..F....v..=...
   12d24:	8474 0002 7d81 0002 7f26 0002 7d91 0002     t....}..&....}..
   12d34:	82ec 0002 73c7 0002 869b 0002 7a2a 0002     .....s......*z..
   12d44:	8200 0002 7e9e 0002 80a6 0002 82a2 0002     .....~..........
   12d54:	7fe0 0002 78cd 0002 7e84 0002 7d30 0002     .....x...~..0}..
   12d64:	7a6a 0002 806f 0002 7b1e 0002 812a 0002     jz..o....{..*...
   12d74:	7cb8 0002 7f4b 0002 81b8 0002 7e19 0002     .|..K........~..
   12d84:	80e5 0002 7ee7 0002 7b09 0002 7d95 0002     .....~...{...}..
   12d94:	81f3 0002 8162 0002 7aee 0002 7e3a 0002     ....b....z..:~..
   12da4:	7fc6 0002 7d5f 0002 8158 0002 8468 0002     ...._}..X...h...
   12db4:	7a5c 0002 7c8d 0002 7f95 0002 7fb2 0002     \z...|..........
   12dc4:	778e 0002 7df7 0002 821c 0002 8153 0002     .w...}......S...
   12dd4:	7bdf 0002 7e53 0002 7f25 0002 7c19 0002     .{..S~..%....|..
   12de4:	7858 0002 7dea 0002 7737 0002 7839 0002     Xx...}..7w..9x..
   12df4:	8060 0002 828e 0002 7d2a 0002 7b07 0002     `.......*}...{..
   12e04:	7c9d 0002 7e36 0002 80fc 0002 78d3 0002     .|..6~.......x..
   12e14:	860c 0002 7c12 0002 7f6f 0002 7a71 0002     .....|..o...qz..
   12e24:	85fe 0002 88f3 0002 7ea5 0002 800a 0002     .........~......
   12e34:	7f12 0002 827e 0002 7bca 0002 8783 0002     ....~....{......
   12e44:	7fa8 0002 7f33 0002 8126 0002 7cc8 0002     ....3...&....|..
   12e54:	8627 0002 7e0f 0002 8468 0002 7a26 0002     '....~..h...&z..
   12e64:	7f93 0002 7e47 0002 7e1d 0002 7eaf 0002     ....G~...~...~..
   12e74:	87a7 0002 814f 0002 82db 0002 766e 0002     ....O.......nv..
   12e84:	7e31 0002 74e4 0002 7e58 0002 7f84 0002     1~...t..X~......
   12e94:	7fbb 0002 820e 0002 86bd 0002 7b24 0002     ............${..
   12ea4:	7d7f 0002 774c 0002 80df 0002 8468 0002     .}..Lw......h...
   12eb4:	7c36 0002 7b91 0002 7bbd 0002 797b 0002     6|...{...{..{y..
   12ec4:	7c79 0002 7d00 0002 8018 0002 83a9 0002     y|...}..........
   12ed4:	7b50 0002 83de 0002 7f60 0002 7d46 0002     P{......`...F}..
   12ee4:	7e5a 0002 7e0b 0002 7c91 0002 7a7e 0002     Z~...~...|..~z..
   12ef4:	7f29 0002 8048 0002 7af7 0002 7e2b 0002     )...H....z..+~..
   12f04:	80dd 0002 7c34 0002 7b75 0002 8023 0002     ....4|..u{..#...
   12f14:	7bb9 0002 8449 0002 7bc5 0002 7956 0002     .{..I....{..Vy..
   12f24:	7a89 0002 7e03 0002 7ab4 0002 8365 0002     .z...~...z..e...
   12f34:	7b5b 0002 7f65 0002 7562 0002 80c6 0002     [{..e...bu......
   12f44:	7e92 0002 78b6 0002 7ac1 0002 8063 0002     .~...x...z..c...
   12f54:	82bf 0002 8035 0002 77fb 0002 7779 0002     ....5....w..yw..
   12f64:	7de0 0002 7f6b 0002 7574 0002 7e54 0002     .}..k...tu..T~..
   12f74:	7d5d 0002 7d8a 0002 8079 0002 8013 0002     ]}...}..y.......
   12f84:	7ab2 0002 7def 0002 7f08 0002 79c4 0002     .z...}.......y..
   12f94:	831a 0002 7a20 0002 7a57 0002 7f61 0002     .... z..Wz..a...
   12fa4:	7f25 0002 7e7e 0002 79d3 0002 7c08 0002     %...~~...y...|..
   12fb4:	7dc5 0002 7e4e 0002 8163 0002 8072 0002     .}..N~..c...r...
   12fc4:	7d32 0002 7836 0002 7a97 0002 7f64 0002     2}..6x...z..d...
   12fd4:	7ed8 0002 7cb7 0002 7c07 0002 79f1 0002     .~...|...|...y..
   12fe4:	7b5d 0002 7c49 0002 7a7a 0002 747b 0002     ]{..I|..zz..{t..
   12ff4:	7f88 0002 7e9b 0002 7724 0002 7c65 0002     .....~..$w..e|..
   13004:	7f0d 0002 82b9 0002 7f0c 0002 7802 0002     .............x..
   13014:	7bc6 0002 7a02 0002 7c83 0002 7911 0002     .{...z...|...y..
   13024:	84e7 0002 7eb1 0002 82e6 0002 7a61 0002     .....~......az..
   13034:	7ce0 0002 7e6f 0002 830e 0002 7df1 0002     .|..o~.......}..
   13044:	7aba 0002 8451 0002 7c74 0002 7f2e 0002     .z..Q...t|......
   13054:	7ee3 0002 7c95 0002 7e6d 0002 7792 0002     .~...|..m~...w..
   13064:	7cf1 0002 7cd1 0002 7e6f 0002 7be7 0002     .|...|..o~...{..
   13074:	7bf9 0002 7a0a 0002 7fbb 0002 7c38 0002     .{...z......8|..
   13084:	78bc 0002 7a2a 0002 81ec 0002 7feb 0002     .x..*z..........
   13094:	7ec3 0002 7c3e 0002 7720 0002 7c4e 0002     .~..>|.. w..N|..
   130a4:	76b8 0002 7f92 0002 825b 0002 7aa8 0002     .v......[....z..
   130b4:	796e 0002 79bd 0002 8326 0002 7af8 0002     ny...y..&....z..
   130c4:	7c9d 0002 8032 0002 7ded 0002 88ce 0002     .|..2....}......
   130d4:	7ddd 0002 7ae3 0002 7afa 0002 7b82 0002     .}...z...z...{..
   130e4:	7d23 0002 7f2d 0002 7d8c 0002 7e3c 0002     #}..-....}..<~..
   130f4:	7a03 0002 7e2f 0002 7c42 0002 7768 0002     .z../~..B|..hw..
   13104:	8796 0002 7a48 0002 7d68 0002 7826 0002     ....Hz..h}..&x..
   13114:	77b8 0002 7bad 0002 74fa 0002 7f63 0002     .w...{...t..c...
   13124:	7c14 0002 7a8e 0002 7ac6 0002 7d59 0002     .|...z...z..Y}..
   13134:	839d 0002 7dcc 0002 756a 0002 7e7d 0002     .....}..ju..}~..
   13144:	7fa9 0002 76aa 0002 7e16 0002 7da3 0002     .....v...~...}..
   13154:	8152 0002 7bc6 0002 7e26 0002 7db5 0002     R....{..&~...}..
   13164:	7b7a 0002 81ee 0002 7f27 0002 7907 0002     z{......'....y..
   13174:	7b9d 0002 790d 0002 8057 0002 78cf 0002     .{...y..W....x..
   13184:	807d 0002 80b4 0002 7d3c 0002 7fac 0002     }.......<}......
   13194:	81bb 0002 7bb1 0002 8154 0002 815e 0002     .....{..T...^...
   131a4:	7d40 0002 7a32 0002 796a 0002 801d 0002     @}..2z..jy......
   131b4:	7e97 0002 7b61 0002 7e19 0002 86b4 0002     .~..a{...~......
   131c4:	77bf 0002 7b2a 0002 8175 0002 7d2f 0002     .w..*{..u.../}..
   131d4:	7e82 0002 7f86 0002 7fae 0002 8026 0002     .~..........&...
   131e4:	80ba 0002 7cde 0002 81d0 0002 7d71 0002     .....|......q}..
   131f4:	7f3f 0002 7c18 0002 7ac3 0002 7a54 0002     ?....|...z..Tz..
   13204:	83b6 0002 7f4c 0002 7d45 0002 8450 0002     ....L...E}..P...
   13214:	7cf6 0002 8312 0002 7c84 0002 7f6d 0002     .|.......|..m...
   13224:	828d 0002 7ab8 0002 859e 0002 8085 0002     .....z..........
   13234:	7722 0002 8048 0002 77cd 0002 791a 0002     "w..H....w...y..
   13244:	7e2b 0002 7d05 0002 88d4 0002 7ed0 0002     +~...}.......~..
   13254:	8162 0002 7c26 0002 7b26 0002 7c63 0002     b...&|..&{..c|..
   13264:	82db 0002 779c 0002 7921 0002 8252 0002     .....w..!y..R...
   13274:	81ac 0002 78be 0002 8108 0002 7ed8 0002     .....x.......~..
   13284:	80d9 0002 7ccd 0002 7ccd 0002 8676 0002     .....|...|..v...
   13294:	7c0c 0002 7afe 0002 7cb9 0002 80a1 0002     .|...z...|......
   132a4:	7b3d 0002 830b 0002 8228 0002 7c61 0002     ={......(...a|..
   132b4:	7cb4 0002 7b58 0002 820e 0002 80cd 0002     .|..X{..........
   132c4:	7367 0002 7a1a 0002 803e 0002 7fd8 0002     gs...z..>.......
   132d4:	8818 0002 8354 0002 7ea2 0002 8300 0002     ....T....~......
   132e4:	7fa6 0002 82fc 0002 8103 0002 7ef3 0002     .............~..
   132f4:	8248 0002 81ff 0002 7fe1 0002 7b7a 0002     H...........z{..
   13304:	7bc5 0002 7fe2 0002 7f0b 0002 82cf 0002     .{..............
   13314:	7f7d 0002 782d 0002 7e43 0002 7726 0002     }...-x..C~..&w..
   13324:	8006 0002 79d2 0002 78f5 0002 7df0 0002     .....y...x...}..
   13334:	7ce4 0002 7f5a 0002 8839 0002 7cf6 0002     .|..Z...9....|..
   13344:	7af0 0002 7ee7 0002 7f53 0002 7dd9 0002     .z...~..S....}..
   13354:	8090 0002 7e6c 0002 7d8a 0002 8246 0002     ....l~...}..F...
   13364:	81a5 0002 7a3b 0002 7f81 0002 78c3 0002     ....;z.......x..
   13374:	79dc 0002 7f4d 0002 819e 0002 808c 0002     .y..M...........
   13384:	81ce 0002 7f39 0002 7b00 0002 79df 0002     ....9....{...y..
   13394:	78b5 0002 8244 0002 7a88 0002 7f7e 0002     .x..D....z..~...
   133a4:	7ae8 0002 77de 0002 8188 0002 7bb7 0002     .z...w.......{..
   133b4:	7ca7 0002 81e2 0002 7be5 0002 827d 0002     .|.......{..}...
   133c4:	82c2 0002 7629 0002 79d7 0002 851f 0002     ....)v...y......
   133d4:	7d5c 0002 8717 0002 7d7f 0002 79a8 0002     \}.......}...y..
   133e4:	80fc 0002 7c3d 0002 7dbb 0002 76ca 0002     ....=|...}...v..
   133f4:	7b32 0002 824c 0002 7c1f 0002 8605 0002     2{..L....|......
   13404:	78a5 0002 806c 0002 7df7 0002 7f26 0002     .x..l....}..&...
   13414:	7e4a 0002 84bc 0002 78ca 0002 79a6 0002     J~.......x...y..
   13424:	7fd7 0002 7f05 0002 7b79 0002 7eea 0002     ........y{...~..
   13434:	7d9d 0002 7884 0002 7ca0 0002 7e7a 0002     .}...x...|..z~..
   13444:	8112 0002 803c 0002 815f 0002 79bf 0002     ....<..._....y..
   13454:	7ad7 0002 82d3 0002 8078 0002 8383 0002     .z......x.......
   13464:	8381 0002 78f5 0002 7809 0002 824d 0002     .....x...x..M...
   13474:	7f35 0002 7ca0 0002 7aac 0002 7866 0002     5....|...z..fx..
   13484:	7bf4 0002 80db 0002 71af 0002 7f5a 0002     .{.......q..Z...
   13494:	82cf 0002 7b91 0002 8136 0002 811f 0002     .....{..6.......
   134a4:	7f83 0002 7a72 0002 7832 0002 843a 0002     ....rz..2x..:...
   134b4:	7a51 0002 8285 0002 7af7 0002 7f29 0002     Qz.......z..)...
   134c4:	7d18 0002 7d39 0002 7d9a 0002 82b6 0002     .}..9}...}......
   134d4:	79f8 0002 82cd 0002 7ade 0002 8287 0002     .y.......z......
   134e4:	8109 0002 7ab7 0002 8528 0002 803e 0002     .....z..(...>...
   134f4:	7f84 0002 7de0 0002 7eb8 0002 7d6d 0002     .....}...~..m}..
   13504:	7887 0002 7d82 0002 79a0 0002 7df9 0002     .x...}...y...}..
   13514:	805e 0002 7c31 0002 7917 0002 80fa 0002     ^...1|...y......
   13524:	79f4 0002 793f 0002 7bf0 0002 7ea3 0002     .y..?y...{...~..
   13534:	813b 0002 78cc 0002 81ce 0002 7fb2 0002     ;....x..........
   13544:	850f 0002 7f79 0002 8221 0002 843d 0002     ....y...!...=...
   13554:	7d98 0002 7c9c 0002 7de3 0002 7c95 0002     .}...|...}...|..
   13564:	83ce 0002 7ec2 0002 7b06 0002 81bf 0002     .....~...{......
   13574:	7fa3 0002 7ec5 0002 7c64 0002 796e 0002     .....~..d|..ny..
   13584:	7786 0002 7db1 0002 7f70 0002 84ce 0002     .w...}..p.......
   13594:	7e47 0002 8994 0002 7ef6 0002 8399 0002     G~.......~......
   135a4:	789b 0002 8259 0002 7d15 0002 8347 0002     .x..Y....}..G...
   135b4:	82ca 0002 82ca 0002 7d74 0002 8192 0002     ........t}......
   135c4:	8416 0002 81bb 0002 7e90 0002 7d8d 0002     .........~...}..
   135d4:	7f58 0002 7c37 0002 7ed8 0002 7f22 0002     X...7|...~.."...
   135e4:	7af4 0002 7f6b 0002 7e7d 0002 8416 0002     .z..k...}~......
   135f4:	82a4 0002 8036 0002 7d23 0002 7f61 0002     ....6...#}..a...
   13604:	80d4 0002 7cda 0002 7f36 0002 7b0b 0002     .....|..6....{..
   13614:	8180 0002 8162 0002 7869 0002 8a56 0002     ....b...ix..V...
   13624:	7df2 0002 84ab 0002 8071 0002 7f26 0002     .}......q...&...
   13634:	8974 0002 7d1b 0002 80f7 0002 7f12 0002     t....}..........
   13644:	7d85 0002 7f3f 0002 822b 0002 7cb3 0002     .}..?...+....|..
   13654:	7eb1 0002 7db4 0002 7d22 0002 8106 0002     .~...}.."}......
   13664:	8228 0002 8020 0002 7fc8 0002 8196 0002     (... ...........
   13674:	814c 0002 7abf 0002 7e10 0002 7523 0002     L....z...~..#u..
   13684:	7a41 0002 81fd 0002 7e85 0002 7b70 0002     Az.......~..p{..
   13694:	8093 0002 805e 0002 7cd7 0002 7db8 0002     ....^....|...}..
   136a4:	7683 0002 82a1 0002 7f9e 0002 7f01 0002     .v..............
   136b4:	722f 0002 7e4d 0002 7976 0002 7ed0 0002     /r..M~..vy...~..
   136c4:	7caa 0002 7c17 0002 828d 0002 819d 0002     .|...|..........
   136d4:	8404 0002 7ba9 0002 8024 0002 8039 0002     .....{..$...9...
   136e4:	7deb 0002 7c45 0002 7e34 0002 80a1 0002     .}..E|..4~......
   136f4:	7fc3 0002 82d6 0002 7ef6 0002 7c6f 0002     .........~..o|..
   13704:	754c 0002 7871 0002 7ef7 0002 828e 0002     Lu..qx...~......
   13714:	7edb 0002 7bef 0002 79f8 0002 8513 0002     .~...{...y......
   13724:	828c 0002 8303 0002 7610 0002 8433 0002     .........v..3...
   13734:	833a 0002 7a83 0002 7e61 0002 77d5 0002     :....z..a~...w..
   13744:	7987 0002 80bd 0002 7bd5 0002 7b5a 0002     .y.......{..Z{..
   13754:	7c5e 0002 7db2 0002 8229 0002 8140 0002     ^|...}..)...@...
   13764:	7db2 0002 800d 0002 7cee 0002 7667 0002     .}.......|..gv..
   13774:	8177 0002 8291 0002 7947 0002 7f20 0002     w.......Gy.. ...
   13784:	839b 0002 7c39 0002 7c0c 0002 87b7 0002     ....9|...|......
   13794:	7dcf 0002 80ad 0002 75a3 0002 821b 0002     .}.......u......
   137a4:	7ae5 0002 7d6e 0002 7c64 0002 7d60 0002     .z..n}..d|..`}..
   137b4:	8439 0002 79ca 0002 7b1a 0002 809b 0002     9....y...{......
   137c4:	81cb 0002 7fb5 0002 7fbf 0002 7c7d 0002     ............}|..
   137d4:	7b72 0002 7b48 0002 795e 0002 80c8 0002     r{..H{..^y......
   137e4:	7bbe 0002 7c77 0002 7cd4 0002 7cf3 0002     .{..w|...|...|..
   137f4:	8041 0002 7ae9 0002 7cac 0002 7510 0002     A....z...|...u..
   13804:	7f9e 0002 7dda 0002 81da 0002 7b75 0002     .....}......u{..
   13814:	7cae 0002 7d21 0002 83b4 0002 815e 0002     .|..!}......^...
   13824:	822e 0002 850a 0002 7a77 0002 7ca5 0002     ........wz...|..
   13834:	77eb 0002 81f8 0002 7caf 0002 807a 0002     .w.......|..z...
   13844:	7c6f 0002 881c 0002 83c6 0002 807d 0002     o|..........}...
   13854:	7c60 0002 77fb 0002 7ae3 0002 7d08 0002     `|...w...z...}..
   13864:	84b9 0002 7f02 0002 784e 0002 78d7 0002     ........Nx...x..
   13874:	7dfc 0002 84d0 0002 7a46 0002 7f5e 0002     .}......Fz..^...
   13884:	7cf6 0002 81a1 0002 7e09 0002 7e8c 0002     .|.......~...~..
   13894:	7cac 0002 7b2c 0002 8335 0002 7c41 0002     .|..,{..5...A|..
   138a4:	7c28 0002 7e06 0002 7c14 0002 80fd 0002     (|...~...|......
   138b4:	81b7 0002 787a 0002 77aa 0002 8145 0002     ....zx...w..E...
   138c4:	7f7e 0002 8877 0002 7b8b 0002 8572 0002     ~...w....{..r...
   138d4:	7fb2 0002 81d8 0002 7bd1 0002 80ab 0002     .........{......
   138e4:	78b9 0002 7b87 0002 79e5 0002 7686 0002     .x...{...y...v..
   138f4:	7c51 0002 8285 0002 7879 0002 8153 0002     Q|......yx..S...
   13904:	8699 0002 795d 0002 78ca 0002 804f 0002     ....]y...x..O...
   13914:	7cc6 0002 81e9 0002 7e44 0002 808a 0002     .|......D~......
   13924:	7c58 0002 80cd 0002 7f06 0002 7aca 0002     X|...........z..
   13934:	7e8b 0002 862f 0002 7abd 0002 7f04 0002     .~../....z......
   13944:	7fcd 0002 7ed0 0002 7ad1 0002 7e9a 0002     .....~...z...~..
   13954:	7e91 0002 7de4 0002 78b6 0002 7efa 0002     .~...}...x...~..
   13964:	7a64 0002 7ee6 0002 7c6a 0002 7571 0002     dz...~..j|..qu..
   13974:	81d7 0002 7e71 0002 80cf 0002 7f53 0002     ....q~......S...
   13984:	77d2 0002 7e4d 0002 7db9 0002 7b93 0002     .w..M~...}...{..
   13994:	8025 0002 7bfe 0002 7f98 0002 8230 0002     %....{......0...
   139a4:	7ad3 0002 7d21 0002 7e86 0002 7e12 0002     .z..!}...~...~..
   139b4:	8170 0002 7cf9 0002 7abd 0002 785e 0002     p....|...z..^x..
   139c4:	7320 0002 7d0f 0002 84f7 0002 82a1 0002      s...}..........
   139d4:	7932 0002 7c31 0002 7fe4 0002 79d3 0002     2y..1|.......y..
   139e4:	8273 0002 81bc 0002 7548 0002 7cfe 0002     s.......Hu...|..
   139f4:	8393 0002 773b 0002 7f74 0002 7eab 0002     ....;w..t....~..
   13a04:	811e 0002 7a97 0002 7da5 0002 7f89 0002     .....z...}......
   13a14:	7eee 0002 7833 0002 7a69 0002 8262 0002     .~..3x..iz..b...
   13a24:	7c0b 0002 7933 0002 7866 0002 82af 0002     .|..3y..fx......
   13a34:	7a10 0002 7de7 0002 82c5 0002 7ac2 0002     .z...}.......z..
   13a44:	8080 0002 7be5 0002 8044 0002 815b 0002     .....{..D...[...
   13a54:	7d9f 0002 82f5 0002 7bb2 0002 7ef2 0002     .}.......{...~..
   13a64:	7c03 0002 7fbe 0002 7e05 0002 7fce 0002     .|.......~......
   13a74:	82f6 0002 7be8 0002 7f14 0002 8270 0002     .....{......p...
   13a84:	82b7 0002 7ee1 0002 7f4a 0002 80c6 0002     .....~..J.......
   13a94:	7e15 0002 73ab 0002 78de 0002 7ddc 0002     .~...s...x...}..
   13aa4:	72d8 0002 8531 0002 820e 0002 8332 0002     .r..1.......2...
   13ab4:	7ac5 0002 7cc2 0002 7a7f 0002 8346 0002     .z...|...z..F...
   13ac4:	7b11 0002 7906 0002 7bae 0002 7f43 0002     .{...y...{..C...
   13ad4:	7c71 0002 7c65 0002 7849 0002 7e91 0002     q|..e|..Ix...~..
   13ae4:	7d2b 0002 81fc 0002 8359 0002 7d41 0002     +}......Y...A}..
   13af4:	7e10 0002 7e6e 0002 7cab 0002 7dc9 0002     .~..n~...|...}..
   13b04:	7887 0002 7bef 0002 7afd 0002 7ef8 0002     .x...{...z...~..
   13b14:	7c81 0002 7d92 0002 7c54 0002 7bd8 0002     .|...}..T|...{..
   13b24:	802b 0002 7d9d 0002 7b65 0002 8714 0002     +....}..e{......
   13b34:	80b5 0002 7876 0002 7f78 0002 8089 0002     ....vx..x.......
   13b44:	8217 0002 7dae 0002 7d1e 0002 7c67 0002     .....}...}..g|..
   13b54:	84e8 0002 7e2c 0002 86bb 0002 7444 0002     ....,~......Dt..
   13b64:	7a6e 0002 8076 0002 7bb6 0002 7cb8 0002     nz..v....{...|..
   13b74:	82a6 0002 8078 0002 8352 0002 83f3 0002     ....x...R.......
   13b84:	7bb8 0002 7a01 0002 78d5 0002 7c8c 0002     .{...z...x...|..
   13b94:	7dad 0002 80d1 0002 8306 0002 7ea5 0002     .}...........~..
   13ba4:	85ee 0002 85da 0002 7d89 0002 7a7f 0002     .........}...z..
   13bb4:	819b 0002 7f81 0002 813f 0002 7ac8 0002     ........?....z..
   13bc4:	81f0 0002 827e 0002 81e9 0002 7fc1 0002     ....~...........
   13bd4:	833e 0002 8127 0002 8410 0002 8207 0002     >...'...........
   13be4:	7cda 0002 8199 0002 7e5d 0002 7dac 0002     .|......]~...}..
   13bf4:	8544 0002 7a38 0002 8109 0002 7a5e 0002     D...8z......^z..
   13c04:	7e81 0002 8132 0002 7fd1 0002 853a 0002     .~..2.......:...
   13c14:	7fdb 0002 7ce3 0002 7704 0002 7d1b 0002     .....|...w...}..
   13c24:	7d77 0002 81c5 0002 7f91 0002 7b65 0002     w}..........e{..
   13c34:	8059 0002 80d5 0002 7cf7 0002 82a4 0002     Y........|......
   13c44:	7bda 0002 8056 0002 75e1 0002 7cb5 0002     .{..V....u...|..
   13c54:	7e0f 0002 8143 0002 7fa6 0002 7c15 0002     .~..C........|..
   13c64:	8619 0002 7f02 0002 807f 0002 7d85 0002     .............}..
   13c74:	83fc 0002 7d71 0002 79d2 0002 7aa8 0002     ....q}...y...z..
   13c84:	7bf9 0002 83cd 0002 7f8c 0002 8896 0002     .{..............
   13c94:	8118 0002 7b65 0002 7942 0002 7a0e 0002     ....e{..By...z..
   13ca4:	7bf2 0002 7ed3 0002 7b0d 0002 7a1d 0002     .{...~...{...z..
   13cb4:	84dc 0002 7d08 0002 7f5a 0002 7bf6 0002     .....}..Z....{..
   13cc4:	7d46 0002 7bce 0002 84ba 0002 7f13 0002     F}...{..........
   13cd4:	8291 0002 7dff 0002 838a 0002 7fa9 0002     .....}..........
   13ce4:	7def 0002 7dd1 0002 7f96 0002 824e 0002     .}...}......N...
   13cf4:	7fa7 0002 7e63 0002 80b0 0002 810b 0002     ....c~..........
   13d04:	7fd6 0002 7c3f 0002 74a7 0002 7c3d 0002     ....?|...t..=|..
   13d14:	7d2f 0002 8555 0002 77ee 0002 770d 0002     /}..U....w...w..
   13d24:	8092 0002 79e0 0002 7b82 0002 804d 0002     .....y...{..M...
   13d34:	7d54 0002 82fd 0002 7a3c 0002 79c4 0002     T}......<z...y..
   13d44:	7f6b 0002 80e6 0002 88cf 0002 8436 0002     k...........6...
   13d54:	7973 0002 8297 0002 7b1b 0002 838e 0002     sy.......{......
   13d64:	83c2 0002 795d 0002 7d5b 0002 7e72 0002     ....]y..[}..r~..
   13d74:	7cc9 0002 797f 0002 7b9b 0002 7cb9 0002     .|...y...{...|..
   13d84:	7dc7 0002 794b 0002 80b4 0002 801a 0002     .}..Ky..........
   13d94:	79b4 0002 7d01 0002 8141 0002 7e01 0002     .y...}..A....~..
   13da4:	835e 0002 784c 0002 8223 0002 7dbd 0002     ^...Lx..#....}..
   13db4:	7ec1 0002 7f58 0002 801a 0002 8348 0002     .~..X.......H...
   13dc4:	7dc0 0002 7e7d 0002 81be 0002 7cfd 0002     .}..}~.......|..
   13dd4:	7d34 0002 814b 0002 772d 0002 7e7b 0002     4}..K...-w..{~..
   13de4:	7b8a 0002 7bcc 0002 7a88 0002 7dd0 0002     .{...{...z...}..
   13df4:	7248 0002 7ea4 0002 7fdf 0002 7edc 0002     Hr...~.......~..
   13e04:	8047 0002 7a3a 0002 7c8d 0002 7fad 0002     G...:z...|......
   13e14:	7f36 0002 7812 0002 7eac 0002 7dd3 0002     6....x...~...}..
   13e24:	83d2 0002 7acf 0002 85a0 0002 78b1 0002     .....z.......x..
   13e34:	7c4f 0002 7dfe 0002 804a 0002 8559 0002     O|...}..J...Y...
   13e44:	7d47 0002 7c3f 0002 8274 0002 79dd 0002     G}..?|..t....y..
   13e54:	7846 0002 7e02 0002 8015 0002 7c58 0002     Fx...~......X|..
   13e64:	7e0f 0002 80ba 0002 79e1 0002 79d4 0002     .~.......y...y..
   13e74:	7fb8 0002 8007 0002 7c56 0002 74e0 0002     ........V|...t..
   13e84:	7b6a 0002 7bcc 0002 8228 0002 7aae 0002     j{...{..(....z..
   13e94:	7f4f 0002 7a9c 0002 7aca 0002 7db7 0002     O....z...z...}..
   13ea4:	7b3d 0002 7b2b 0002 7c9c 0002 7d4f 0002     ={..+{...|..O}..
   13eb4:	7d90 0002 80a6 0002 7e25 0002 7cd3 0002     .}......%~...|..
   13ec4:	7a7e 0002 7ccf 0002 81ee 0002 86f7 0002     ~z...|..........
   13ed4:	7e72 0002 7f5a 0002 80aa 0002 8140 0002     r~..Z.......@...
   13ee4:	7d2c 0002 7cc4 0002 81ea 0002 7fc8 0002     ,}...|..........
   13ef4:	825e 0002 8608 0002 7c27 0002 8047 0002     ^.......'|..G...
   13f04:	7a9f 0002 75ea 0002 8414 0002 84c5 0002     .z...u..........
   13f14:	832d 0002 797c 0002 83d1 0002 7f29 0002     -...|y......)...
   13f24:	818b 0002 7a1f 0002 7caf 0002 80b4 0002     .....z...|......
   13f34:	7f47 0002 7c2d 0002 880f 0002 831b 0002     G...-|..........
   13f44:	7d4c 0002 8205 0002 862d 0002 8380 0002     L}......-.......
   13f54:	80d5 0002 7ee6 0002 7d23 0002 8141 0002     .....~..#}..A...
   13f64:	8191 0002 77f1 0002 7d3c 0002 7c32 0002     .....w..<}..2|..
   13f74:	7839 0002 822a 0002 7e3a 0002 7b55 0002     9x..*...:~..U{..
   13f84:	7bf0 0002 815f 0002 8534 0002 84db 0002     .{.._...4.......
   13f94:	8119 0002 7824 0002 8137 0002 7abf 0002     ....$x..7....z..
   13fa4:	7f3f 0002 80ee 0002 79a1 0002 824b 0002     ?........y..K...
   13fb4:	844e 0002 7d11 0002 7fa1 0002 7cb3 0002     N....}.......|..
   13fc4:	8933 0002 7bcf 0002 7a0b 0002 7e3d 0002     3....{...z..=~..
   13fd4:	7fa3 0002 7d0c 0002 816e 0002 7b07 0002     .....}..n....{..
   13fe4:	7bbe 0002 7ba0 0002 84b3 0002 807b 0002     .{...{......{...
   13ff4:	7980 0002 7dcb 0002 7f39 0002 7c0a 0002     .y...}..9....|..
   14004:	7eac 0002 81b2 0002 7551 0002 7c18 0002     .~......Qu...|..
   14014:	8215 0002 80bb 0002 82a6 0002 7a84 0002     .............z..
   14024:	8329 0002 7ca9 0002 8055 0002 8078 0002     )....|..U...x...
   14034:	830e 0002 7fec 0002 7c56 0002 7dc0 0002     ........V|...}..
   14044:	83b1 0002 81fd 0002 7a2c 0002 80cb 0002     ........,z......
   14054:	7d40 0002 81d6 0002 823e 0002 7d8d 0002     @}......>....}..
   14064:	83fc 0002 8379 0002 7ab0 0002 79b5 0002     ....y....z...y..
   14074:	7d35 0002 83af 0002 7ef1 0002 7c60 0002     5}.......~..`|..
   14084:	7e8b 0002 7d9d 0002 7d26 0002 7e90 0002     .~...}..&}...~..
   14094:	842f 0002 7c99 0002 79bb 0002 7d34 0002     /....|...y..4}..
   140a4:	7ff4 0002 80e8 0002 7fd3 0002 7e22 0002     ............"~..
   140b4:	7d67 0002 7da5 0002 7c13 0002 8441 0002     g}...}...|..A...
   140c4:	7cda 0002 7a4b 0002 846b 0002 808f 0002     .|..Kz..k.......
   140d4:	802d 0002 7b4f 0002 8a49 0002 76bb 0002     -...O{..I....v..
   140e4:	7e84 0002 8692 0002 7fb3 0002 7d19 0002     .~...........}..
   140f4:	7f0f 0002 7dff 0002 7e85 0002 7fef 0002     .....}...~......
   14104:	80a3 0002 7bba 0002 7e64 0002 7e34 0002     .....{..d~..4~..
   14114:	7a8a 0002 7dd5 0002 80af 0002 79b6 0002     .z...}.......y..
   14124:	8321 0002 825c 0002 8049 0002 8336 0002     !...\...I...6...
   14134:	7efb 0002 809f 0002 82a2 0002 7c95 0002     .~...........|..
   14144:	84a4 0002 7d96 0002 7cfc 0002 7e82 0002     .....}...|...~..
   14154:	7991 0002 8319 0002 7da4 0002 8175 0002     .y.......}..u...
   14164:	7a9e 0002 78b0 0002 78ed 0002 7bc5 0002     .z...x...x...{..
   14174:	78e1 0002 805d 0002 7c55 0002 7f2a 0002     .x..]...U|..*...
   14184:	841d 0002 7cff 0002 8358 0002 7d79 0002     .....|..X...y}..
   14194:	7fce 0002 79df 0002 7aba 0002 83d8 0002     .....y...z......
   141a4:	7f2d 0002 7eca 0002 7c63 0002 7dbf 0002     -....~..c|...}..
   141b4:	798f 0002 832c 0002 7bea 0002 8187 0002     .y..,....{......
   141c4:	8114 0002 7cbb 0002 8085 0002 81ac 0002     .....|..........
   141d4:	7f47 0002 80c7 0002 7e38 0002 7e59 0002     G.......8~..Y~..
   141e4:	7ae6 0002 7bc6 0002 7ed3 0002 7bd1 0002     .z...{...~...{..
   141f4:	8050 0002 8005 0002 7ff6 0002 7864 0002     P...........dx..
   14204:	86da 0002 7ce8 0002 7a99 0002 86b2 0002     .....|...z......
   14214:	7f78 0002 80e1 0002 82fd 0002 8060 0002     x...........`...
   14224:	80d1 0002 82a3 0002 80bd 0002 7d90 0002     .............}..
   14234:	82d0 0002 7fee 0002 7d98 0002 82df 0002     .........}......
   14244:	7b22 0002 7d97 0002 794e 0002 7f0a 0002     "{...}..Ny......
   14254:	8086 0002 74da 0002 8590 0002 8319 0002     .....t..........
   14264:	7f70 0002 7bd0 0002 7fd6 0002 7a08 0002     p....{.......z..
   14274:	7d16 0002 8455 0002 7d23 0002 7e39 0002     .}..U...#}..9~..
   14284:	8513 0002 7b2c 0002 80f8 0002 857c 0002     ....,{......|...
   14294:	8029 0002 7f14 0002 7f34 0002 7c35 0002     ).......4...5|..
   142a4:	8672 0002 83b1 0002 7ea7 0002 7cdf 0002     r........~...|..
   142b4:	7b79 0002 8146 0002 7ecf 0002 7f87 0002     y{..F....~......
   142c4:	83cd 0002 79b1 0002 8017 0002 7e0e 0002     .....y.......~..
   142d4:	7b1d 0002 8441 0002 81cf 0002 81bf 0002     .{..A...........
   142e4:	7cb6 0002 8156 0002 8001 0002 7d4a 0002     .|..V.......J}..
   142f4:	804d 0002 7f1a 0002 82cb 0002 7f5f 0002     M..........._...
   14304:	8489 0002 842b 0002 7c87 0002 7fbd 0002     ....+....|......
   14314:	8154 0002 814d 0002 7eae 0002 7ff1 0002     T...M....~......
   14324:	79a9 0002 821b 0002 7ebc 0002 86af 0002     .y.......~......
   14334:	7e19 0002 8106 0002 8084 0002 8535 0002     .~..........5...
   14344:	7d5b 0002 80c2 0002 7c35 0002 8318 0002     [}......5|......
   14354:	79b2 0002 7e60 0002 7e17 0002 833e 0002     .y..`~...~..>...
   14364:	7eb6 0002 7cc2 0002 7e6e 0002 7f99 0002     .~...|..n~......
   14374:	7b7f 0002 813c 0002 7f37 0002 7d31 0002     .{..<...7...1}..
   14384:	7c67 0002 79d4 0002 7f6a 0002 80b2 0002     g|...y..j.......
   14394:	7d81 0002 79ee 0002 8438 0002 7a4f 0002     .}...y..8...Oz..
   143a4:	7d94 0002 8539 0002 8165 0002 8521 0002     .}..9...e...!...
   143b4:	7b44 0002 7ec0 0002 82a9 0002 7904 0002     D{...~.......y..
   143c4:	861b 0002 7f11 0002 7c66 0002 8182 0002     ........f|......
   143d4:	7fc9 0002 7ec0 0002 7f0e 0002 8067 0002     .....~......g...
   143e4:	82d4 0002 8397 0002 7948 0002 82d3 0002     ........Hy......
   143f4:	7eae 0002 82da 0002 809c 0002 85db 0002     .~..............
   14404:	8421 0002 826d 0002 8000 0002 81c0 0002     !...m...........
   14414:	7f3d 0002 82f8 0002 788b 0002 7b58 0002     =........x..X{..
   14424:	7cd4 0002 8638 0002 790b 0002 8472 0002     .|..8....y..r...
   14434:	7af7 0002 7f31 0002 833b 0002 7f27 0002     .z..1...;...'...
   14444:	7961 0002 84a0 0002 7fae 0002 814e 0002     ay..........N...
   14454:	883f 0002 886b 0002 828f 0002 85a1 0002     ?...k...........
   14464:	830f 0002 7db1 0002 8084 0002 7e5d 0002     .....}......]~..
   14474:	81f2 0002 7beb 0002 8786 0002 7b61 0002     .....{......a{..
   14484:	7a52 0002 77fb 0002 7cba 0002 8163 0002     Rz...w...|..c...
   14494:	839a 0002 77de 0002 853b 0002 7910 0002     .....w..;....y..
   144a4:	7b2b 0002 8364 0002 820e 0002 8232 0002     +{..d.......2...
   144b4:	7cf4 0002 7ef6 0002 7ffb 0002 810a 0002     .|...~..........
   144c4:	7cac 0002 78b7 0002 8439 0002 7d2c 0002     .|...x..9...,}..
   144d4:	82a1 0002 83e6 0002 8085 0002 7eba 0002     .............~..
   144e4:	7ebd 0002 80e9 0002 8249 0002 816b 0002     .~......I...k...
   144f4:	8508 0002 7b57 0002 83d9 0002 7be6 0002     ....W{.......{..
   14504:	7f9b 0002 7f97 0002 7bc7 0002 806a 0002     .........{..j...
   14514:	7c4a 0002 7ffd 0002 8141 0002 7a44 0002     J|......A...Dz..
   14524:	7e75 0002 79b3 0002 808a 0002 8078 0002     u~...y......x...
   14534:	7fd6 0002 8243 0002 778d 0002 7bd0 0002     ....C....w...{..
   14544:	7d13 0002 771b 0002 7ef3 0002 7e59 0002     .}...w...~..Y~..
   14554:	7759 0002 8511 0002 7e7e 0002 79f1 0002     Yw......~~...y..
   14564:	7a2f 0002 7fc8 0002 8139 0002 7c70 0002     /z......9...p|..
   14574:	841a 0002 832d 0002 7e6b 0002 82ca 0002     ....-...k~......
   14584:	7faf 0002 7954 0002 7a36 0002 7c20 0002     ....Ty..6z.. |..
   14594:	852e 0002 7e33 0002 798d 0002 87ef 0002     ....3~...y......
   145a4:	817e 0002 80ed 0002 79b3 0002 7ecd 0002     ~........y...~..
   145b4:	7ec2 0002 7864 0002 7dcd 0002 7efc 0002     .~..dx...}...~..
   145c4:	7ef7 0002 842a 0002 8087 0002 7fba 0002     .~..*...........
   145d4:	7be4 0002 8286 0002 8496 0002 7e2c 0002     .{..........,~..
   145e4:	782b 0002 7df3 0002 82ca 0002 839f 0002     +x...}..........
   145f4:	802a 0002 840d 0002 830a 0002 84ef 0002     *...............
   14604:	80f6 0002 85e8 0002 8259 0002 849d 0002     ........Y.......
   14614:	7bb9 0002 8118 0002 7f34 0002 8020 0002     .{......4... ...
   14624:	8205 0002 7dcb 0002 84e2 0002 83de 0002     .....}..........
   14634:	7d43 0002 838c 0002 801c 0002 8278 0002     C}..........x...
   14644:	8198 0002 8018 0002 7bdc 0002 7bd2 0002     .........{...{..
   14654:	81f0 0002 76f1 0002 7d63 0002 7ecb 0002     .....v..c}...~..
   14664:	7b79 0002 8015 0002 78a3 0002 820a 0002     y{.......x......
   14674:	806a 0002 8043 0002 7cdb 0002 883f 0002     j...C....|..?...
   14684:	8429 0002 7766 0002 8590 0002 7b81 0002     )...fw.......{..
   14694:	7e03 0002 80d0 0002 7f7e 0002 7c11 0002     .~......~....|..
   146a4:	84f1 0002 7e80 0002 82ce 0002 773f 0002     .....~......?w..
   146b4:	77c0 0002 7cfb 0002 8003 0002 8617 0002     .w...|..........
   146c4:	809a 0002 7ac9 0002 7c8f 0002 7c61 0002     .....z...|..a|..
   146d4:	84b5 0002 7bf0 0002 7dd0 0002 7d37 0002     .....{...}..7}..
   146e4:	8142 0002 7ba7 0002 7f6d 0002 8368 0002     B....{..m...h...
   146f4:	8519 0002 76c5 0002 7f2c 0002 77e7 0002     .....v..,....w..
   14704:	7a58 0002 77d1 0002 7eb0 0002 8770 0002     Xz...w...~..p...
   14714:	7a1e 0002 802c 0002 79ad 0002 79ec 0002     .z..,....y...y..
   14724:	7954 0002 8243 0002 7eb3 0002 81df 0002     Ty..C....~......
   14734:	82e7 0002 8592 0002 7d2a 0002 7b54 0002     ........*}..T{..
   14744:	830b 0002 7f00 0002 8185 0002 8189 0002     ................
   14754:	7b8b 0002 7fa4 0002 83e6 0002 7996 0002     .{...........y..
   14764:	7b0d 0002 854c 0002 7bda 0002 8040 0002     .{..L....{..@...
   14774:	7f97 0002 7e22 0002 7f1a 0002 833e 0002     ...."~......>...
   14784:	8145 0002 8323 0002 8265 0002 7ea3 0002     E...#...e....~..
   14794:	7a88 0002 7f39 0002 7ff9 0002 7d32 0002     .z..9.......2}..
   147a4:	788b 0002 7fe6 0002 801f 0002 7ede 0002     .x...........~..
   147b4:	7bf5 0002 7e07 0002 803b 0002 8213 0002     .{...~..;.......
   147c4:	7f76 0002 7f10 0002 8553 0002 7d73 0002     v.......S...s}..
   147d4:	7f99 0002 84ca 0002 7fa3 0002 7dd6 0002     .............}..
   147e4:	7956 0002 7cb8 0002 810b 0002 7a0e 0002     Vy...|.......z..
   147f4:	7f37 0002 7d86 0002 7bb1 0002 7e94 0002     7....}...{...~..
   14804:	7f9f 0002 7d00 0002 7867 0002 7e66 0002     .....}..gx..f~..
   14814:	7857 0002 7b18 0002 7eac 0002 79c2 0002     Wx...{...~...y..
   14824:	7b62 0002 8541 0002 80d9 0002 84ff 0002     b{..A...........
   14834:	7816 0002 7d9c 0002 7b12 0002 79a9 0002     .x...}...{...y..
   14844:	7c34 0002 7db0 0002 8358 0002 82eb 0002     4|...}..X.......
   14854:	795c 0002 7bdc 0002 802b 0002 7f3f 0002     \y...{..+...?...
   14864:	7c80 0002 7e1f 0002 7fb0 0002 801e 0002     .|...~..........
   14874:	7e54 0002 7a0f 0002 855c 0002 7e78 0002     T~...z..\...x~..
   14884:	820f 0002 7982 0002 865f 0002 803f 0002     .....y.._...?...
   14894:	805e 0002 7e1e 0002 7ca4 0002 7b7c 0002     ^....~...|..|{..
   148a4:	814b 0002 7acc 0002 8093 0002 7efe 0002     K....z.......~..
   148b4:	7900 0002 7f08 0002 7c5a 0002 7dd9 0002     .y......Z|...}..
   148c4:	7acf 0002 8053 0002 7fca 0002 7d71 0002     .z..S.......q}..
   148d4:	7f62 0002 7c48 0002 82f0 0002 7d8a 0002     b...H|.......}..
   148e4:	7874 0002 83b3 0002 80ff 0002 7f72 0002     tx..........r...
   148f4:	8478 0002 86c6 0002 84c7 0002 7dc3 0002     x............}..
   14904:	8016 0002 7a6c 0002 84f8 0002 7bcc 0002     ....lz.......{..
   14914:	7e19 0002 8432 0002 8475 0002 8376 0002     .~..2...u...v...
   14924:	7dd5 0002 8495 0002 7c27 0002 7bb5 0002     .}......'|...{..
   14934:	853c 0002 8020 0002 819d 0002 7faf 0002     <... ...........
   14944:	80b4 0002 874c 0002 7c3a 0002 7f63 0002     ....L...:|..c...
   14954:	82da 0002 7741 0002 7199 0002 8159 0002     ....Aw...q..Y...
   14964:	7e76 0002 7cea 0002 7a49 0002 78b6 0002     v~...|..Iz...x..
   14974:	7c5a 0002 805e 0002 7e4b 0002 830c 0002     Z|..^...K~......
   14984:	7df4 0002 8211 0002 8091 0002 7843 0002     .}..........Cx..
   14994:	81ce 0002 774e 0002 77ce 0002 818e 0002     ....Nw...w......
   149a4:	7caf 0002 7d02 0002 82d4 0002 86db 0002     .|...}..........
   149b4:	7f6b 0002 7aa6 0002 7ace 0002 82cb 0002     k....z...z......
   149c4:	850b 0002 7ee0 0002 82dc 0002 819a 0002     .....~..........
   149d4:	7e9b 0002 7ce0 0002 82d5 0002 7ccd 0002     .~...|.......|..
   149e4:	7fc4 0002 7dba 0002 7fec 0002 8402 0002     .....}..........
   149f4:	84e7 0002 809c 0002 7c3f 0002 753d 0002     ........?|..=u..
   14a04:	8136 0002 8201 0002 8389 0002 836f 0002     6...........o...
   14a14:	7b27 0002 8082 0002 83b8 0002 82a8 0002     '{..............
   14a24:	7fdf 0002 82b3 0002 8478 0002 7efe 0002     ........x....~..
   14a34:	7fb6 0002 7a71 0002 7c04 0002 7dda 0002     ....qz...|...}..
   14a44:	7ec0 0002 7640 0002 7e8e 0002 8012 0002     .~..@v...~......
   14a54:	7b4d 0002 7c9f 0002 80ef 0002 805d 0002     M{...|......]...
   14a64:	7df9 0002 82ba 0002 7c60 0002 843c 0002     .}......`|..<...
   14a74:	7f74 0002 78b3 0002 7e17 0002 7feb 0002     t....x...~......
   14a84:	8075 0002 790f 0002 7f4e 0002 818c 0002     u....y..N.......
   14a94:	79d7 0002 815c 0002 8061 0002 83cc 0002     .y..\...a.......
   14aa4:	8035 0002 7c85 0002 7cf8 0002 81a8 0002     5....|...|......
   14ab4:	8463 0002 8521 0002 82fe 0002 8145 0002     c...!.......E...
   14ac4:	80e3 0002 7f62 0002 7fcb 0002 8091 0002     ....b...........
   14ad4:	7ce3 0002 8324 0002 7f81 0002 7eec 0002     .|..$........~..
   14ae4:	7d91 0002 84b3 0002 7c90 0002 7f76 0002     .}.......|..v...
   14af4:	81f3 0002 892a 0002 801a 0002 7ed2 0002     ....*........~..
   14b04:	7e8c 0002 8281 0002 83f7 0002 7b3d 0002     .~..........={..
   14b14:	826f 0002 8211 0002 7c5e 0002 7cbf 0002     o.......^|...|..
   14b24:	8538 0002 7a3b 0002 7a05 0002 7f5a 0002     8...;z...z..Z...
   14b34:	7d72 0002 802a 0002 817b 0002 7f6c 0002     r}..*...{...l...
   14b44:	7e49 0002 7cae 0002 7dcd 0002 8370 0002     I~...|...}..p...
   14b54:	87e8 0002 7cb2 0002 75e8 0002 870a 0002     .....|...u......
   14b64:	7e98 0002 85b5 0002 7f9f 0002 7647 0002     .~..........Gv..
   14b74:	7dff 0002 7b33 0002 7dfc 0002 8543 0002     .}..3{...}..C...
   14b84:	820b 0002 7e37 0002 84ed 0002 82fc 0002     ....7~..........
   14b94:	84cc 0002 7b7c 0002 7d8e 0002 78f6 0002     ....|{...}...x..
   14ba4:	7fec 0002 827f 0002 7a7c 0002 7f31 0002     ........|z..1...
   14bb4:	819e 0002 7f6b 0002 8329 0002 7f73 0002     ....k...)...s...
   14bc4:	8213 0002 82d4 0002 81a4 0002 7d7e 0002     ............~}..
   14bd4:	820d 0002 7e65 0002 7dd4 0002 7c33 0002     ....e~...}..3|..
   14be4:	8200 0002 831f 0002 7aab 0002 7ef2 0002     .........z...~..
   14bf4:	852c 0002 8767 0002 8008 0002 7faa 0002     ,...g...........
   14c04:	8094 0002 838d 0002 8668 0002 7f91 0002     ........h.......
   14c14:	7fed 0002 7b8d 0002 7a24 0002 7e99 0002     .....{..$z...~..
   14c24:	7d95 0002 7b67 0002 8239 0002 8347 0002     .}..g{..9...G...
   14c34:	7a52 0002 7a4d 0002 8500 0002 7e66 0002     Rz..Mz......f~..
   14c44:	7cc8 0002 7b74 0002 7c50 0002 80bd 0002     .|..t{..P|......
   14c54:	8264 0002 75fd 0002 803d 0002 7cfb 0002     d....u..=....|..
   14c64:	8185 0002 8518 0002 7f3c 0002 7f18 0002     ........<.......
   14c74:	8463 0002 7a5f 0002 7a4e 0002 7bb4 0002     c..._z..Nz...{..
   14c84:	821b 0002 840a 0002 810d 0002 7704 0002     .............w..
   14c94:	8117 0002 7594 0002 7e8b 0002 86fb 0002     .....u...~......
   14ca4:	7c9a 0002 825f 0002 78c3 0002 7d03 0002     .|.._....x...}..
   14cb4:	8008 0002 7936 0002 7fc3 0002 7d0f 0002     ....6y.......}..
   14cc4:	786d 0002 7fb6 0002 864e 0002 7fe4 0002     mx......N.......
   14cd4:	8223 0002 7c1f 0002 7d76 0002 7459 0002     #....|..v}..Yt..
   14ce4:	7a8e 0002 7e07 0002 7ec3 0002 7ba0 0002     .z...~...~...{..
   14cf4:	7c55 0002 814d 0002 7aac 0002 7e21 0002     U|..M....z..!~..
   14d04:	7688 0002 826e 0002 8609 0002 7b17 0002     .v..n........{..
   14d14:	7da6 0002 8002 0002 7a14 0002 815c 0002     .}.......z..\...
   14d24:	7cd1 0002 75b0 0002 7e8e 0002 763b 0002     .|...u...~..;v..
   14d34:	7a85 0002 7bb9 0002 7ff1 0002 7c59 0002     .z...{......Y|..
   14d44:	7f03 0002 7c8e 0002 7bf5 0002 7f00 0002     .....|...{......
   14d54:	7b6d 0002 783b 0002 7fbf 0002 807e 0002     m{..;x......~...
   14d64:	809a 0002 8086 0002 8562 0002 807f 0002     ........b.......
   14d74:	7a13 0002 7a52 0002 7e50 0002 7c35 0002     .z..Rz..P~..5|..
   14d84:	7fe3 0002 7ed6 0002 7a99 0002 8221 0002     .....~...z..!...
   14d94:	81c1 0002 7bf4 0002 7f12 0002 82d7 0002     .....{..........
   14da4:	80b8 0002 7d38 0002 7cc4 0002 8254 0002     ....8}...|..T...
   14db4:	8426 0002 7fbc 0002 85af 0002 7d7f 0002     &............}..
   14dc4:	80bc 0002 7d7a 0002 7fe8 0002 7b96 0002     ....z}.......{..
   14dd4:	7ffd 0002 8153 0002 82f5 0002 7ae2 0002     ....S........z..
   14de4:	7f7d 0002 75c4 0002 78f1 0002 81bc 0002     }....u...x......
   14df4:	8234 0002 8069 0002 7fff 0002 81c5 0002     4...i...........
   14e04:	7cc9 0002 811f 0002 7da0 0002 7e5e 0002     .|.......}..^~..
   14e14:	7ad4 0002 7abf 0002 7aa5 0002 84db 0002     .z...z...z......
   14e24:	76d2 0002 8606 0002 7c6a 0002 8253 0002     .v......j|..S...
   14e34:	7c3d 0002 7fe0 0002 80b9 0002 7cd0 0002     =|...........|..
   14e44:	7d03 0002 7b59 0002 7cb0 0002 7b15 0002     .}..Y{...|...{..
   14e54:	7e63 0002 82dd 0002 82c7 0002 7d5d 0002     c~..........]}..
   14e64:	7dc9 0002 86e0 0002 7ab1 0002 7de6 0002     .}.......z...}..
   14e74:	7bbf 0002 7ce2 0002 7912 0002 79c2 0002     .{...|...y...y..
   14e84:	7e38 0002 8583 0002 7af7 0002 8056 0002     8~.......z..V...
   14e94:	74f5 0002 757b 0002 80fe 0002 7bfc 0002     .t..{u.......{..
   14ea4:	7c39 0002 8349 0002 7a44 0002 7a40 0002     9|..I...Dz..@z..
   14eb4:	8034 0002 845d 0002 8488 0002 7bff 0002     4...]........{..
   14ec4:	77d6 0002 7d20 0002 84ad 0002 786c 0002     .w.. }......lx..
   14ed4:	7d21 0002 82d3 0002 814f 0002 820c 0002     !}......O.......
   14ee4:	7a04 0002 81e8 0002 8295 0002 7e44 0002     .z..........D~..
   14ef4:	7faa 0002 7e2f 0002 7c28 0002 81a7 0002     ..../~..(|......
   14f04:	805f 0002 7b72 0002 7ce1 0002 87c0 0002     _...r{...|......
   14f14:	7d6d 0002 7fa0 0002 7d9f 0002 7a36 0002     m}.......}..6z..
   14f24:	7f7c 0002 7f4a 0002 7dbb 0002 7f8e 0002     |...J....}......
   14f34:	772c 0002 8132 0002 79ca 0002 8233 0002     ,w..2....y..3...
   14f44:	7c0a 0002 7c33 0002 8168 0002 8163 0002     .|..3|..h...c...
   14f54:	805b 0002 8387 0002 81fa 0002 80de 0002     [...............
   14f64:	8409 0002 7b2c 0002 7ba2 0002 7c7b 0002     ....,{...{..{|..
   14f74:	764b 0002 8658 0002 7cd4 0002 86d1 0002     Kv..X....|......
   14f84:	7e29 0002 809b 0002 7d08 0002 8149 0002     )~.......}..I...
   14f94:	839d 0002 790c 0002 7f7f 0002 7eb4 0002     .....y.......~..
   14fa4:	7f9a 0002 7d1e 0002 7bb5 0002 805c 0002     .....}...{..\...
   14fb4:	81b9 0002 7ea1 0002 7b3a 0002 7f85 0002     .....~..:{......
   14fc4:	8309 0002 815b 0002 7f18 0002 8412 0002     ....[...........
   14fd4:	79ae 0002 809d 0002 7c05 0002 848c 0002     .y.......|......
   14fe4:	7d4c 0002 8486 0002 7f9c 0002 7911 0002     L}...........y..
   14ff4:	7840 0002 797f 0002 7e93 0002 7c54 0002     @x...y...~..T|..
   15004:	7b82 0002 78c8 0002 7c68 0002 7db3 0002     .{...x..h|...}..
   15014:	829e 0002 819c 0002 8053 0002 8010 0002     ........S.......
   15024:	7f34 0002 7caa 0002 815a 0002 7e66 0002     4....|..Z...f~..
   15034:	83b7 0002 7a5b 0002 7d37 0002 7dcb 0002     ....[z..7}...}..
   15044:	8334 0002 7f8d 0002 7c02 0002 852c 0002     4........|..,...
   15054:	7c98 0002 7db3 0002 7f55 0002 7c15 0002     .|...}..U....|..
   15064:	7ee9 0002 83d2 0002 7c75 0002 7c49 0002     .~......u|..I|..
   15074:	7daf 0002 7e50 0002 807f 0002 7a86 0002     .}..P~.......z..
   15084:	7fa2 0002 7fea 0002 79e0 0002 7fa1 0002     .........y......
   15094:	7cb8 0002 83d9 0002 814a 0002 7c0a 0002     .|......J....|..
   150a4:	7bc9 0002 83a7 0002 8497 0002 7bdd 0002     .{...........{..
   150b4:	7dcd 0002 7c6a 0002 7f06 0002 799c 0002     .}..j|.......y..
   150c4:	7f21 0002 85b6 0002 7e0b 0002 7f0a 0002     !........~......
   150d4:	7cd2 0002 87ea 0002 7d57 0002 78b2 0002     .|......W}...x..
   150e4:	80ac 0002 81c1 0002 7f05 0002 7ffb 0002     ................
   150f4:	7d3d 0002 7f83 0002 7c6e 0002 811c 0002     =}......n|......
   15104:	7a29 0002 8029 0002 832e 0002 7e75 0002     )z..).......u~..
   15114:	809b 0002 8364 0002 80d3 0002 7df3 0002     ....d........}..
   15124:	8220 0002 8175 0002 8186 0002 7e2f 0002      ...u......./~..
   15134:	7a96 0002 80c8 0002 7aa9 0002 80d7 0002     .z.......z......
   15144:	7a1b 0002 7be3 0002 7c8f 0002 7bea 0002     .z...{...|...{..
   15154:	7a74 0002 7e61 0002 7bd6 0002 7c45 0002     tz..a~...{..E|..
   15164:	7d83 0002 7c23 0002 7f66 0002 831b 0002     .}..#|..f.......
   15174:	7acb 0002 82d4 0002 7b87 0002 807d 0002     .z.......{..}...
   15184:	8096 0002 7e5f 0002 7df8 0002 82dc 0002     ...._~...}......
   15194:	75c4 0002 76a0 0002 809d 0002 7c50 0002     .u...v......P|..
   151a4:	849a 0002 7bd7 0002 8095 0002 816b 0002     .....{......k...
   151b4:	7eea 0002 79c9 0002 7f9c 0002 7f09 0002     .~...y..........
   151c4:	7a7e 0002 7b92 0002 7d20 0002 7d55 0002     ~z...{.. }..U}..
   151d4:	79c1 0002 774c 0002 7bde 0002 82cb 0002     .y..Lw...{......
   151e4:	7f30 0002 8135 0002 7edc 0002 884a 0002     0...5....~..J...
   151f4:	72ae 0002 87c7 0002 7eba 0002 872f 0002     .r.......~../...
   15204:	7df0 0002 7e59 0002 78c3 0002 8285 0002     .}..Y~...x......
   15214:	869a 0002 7501 0002 7adc 0002 7b82 0002     .....u...z...{..
   15224:	839d 0002 7ed1 0002 845c 0002 832a 0002     .....~..\...*...
   15234:	8085 0002 7899 0002 7c13 0002 7c5f 0002     .....x...|.._|..
   15244:	7b22 0002 7e67 0002 8506 0002 814c 0002     "{..g~......L...
   15254:	8088 0002 7cda 0002 7965 0002 7963 0002     .....|..ey..cy..
   15264:	8438 0002 7f40 0002 7741 0002 7d2f 0002     8...@...Aw../}..
   15274:	7b63 0002 82c0 0002 8291 0002 83d2 0002     c{..............
   15284:	7d98 0002 7f28 0002 80b3 0002 7b98 0002     .}..(........{..
   15294:	8707 0002 79f6 0002 817e 0002 7dc7 0002     .....y..~....}..
   152a4:	7e5f 0002 7fa2 0002 8338 0002 7f1a 0002     _~......8.......
   152b4:	7dfe 0002 8188 0002 7edf 0002 7dd4 0002     .}.......~...}..
   152c4:	7c23 0002 8185 0002 802d 0002 7d65 0002     #|......-...e}..
   152d4:	7e56 0002 81b3 0002 7702 0002 7c00 0002     V~.......w...|..
   152e4:	7a7d 0002 7910 0002 8302 0002 7a58 0002     }z...y......Xz..
   152f4:	7b6a 0002 7eec 0002 7f59 0002 833f 0002     j{...~..Y...?...
   15304:	8345 0002 7b49 0002 7bbc 0002 794a 0002     E...I{...{..Jy..
   15314:	8d42 0002 7cb2 0002 7d0e 0002 7b09 0002     B....|...}...{..
   15324:	7d13 0002 7a20 0002 7af9 0002 8286 0002     .}.. z...z......
   15334:	7a04 0002 7b81 0002 860b 0002 78d2 0002     .z...{.......x..
   15344:	7a58 0002 7d69 0002 8116 0002 7d6c 0002     Xz..i}......l}..
   15354:	7f7d 0002 7bf8 0002 836c 0002 7e25 0002     }....{..l...%~..
   15364:	7ec5 0002 83e8 0002 7e02 0002 79b6 0002     .~.......~...y..
   15374:	8264 0002 7baa 0002 8352 0002 858d 0002     d....{..R.......
   15384:	7d1a 0002 7fdb 0002 804e 0002 7fe0 0002     .}......N.......
   15394:	8290 0002 7d5a 0002 83f0 0002 819a 0002     ....Z}..........
   153a4:	8382 0002 7e81 0002 7977 0002 799d 0002     .....~..wy...y..
   153b4:	81a9 0002 7e40 0002 8096 0002 8061 0002     ....@~......a...
   153c4:	834b 0002 7ff2 0002 80b5 0002 801d 0002     K...............
   153d4:	79bd 0002 81e8 0002 8353 0002 86b7 0002     .y......S.......
   153e4:	790e 0002 7c6b 0002 7dd9 0002 7684 0002     .y..k|...}...v..
   153f4:	7f63 0002 79c2 0002 7da1 0002 7cf4 0002     c....y...}...|..
   15404:	7a6f 0002 78c6 0002 7d02 0002 7cd5 0002     oz...x...}...|..
   15414:	7a89 0002 7d1f 0002 81b9 0002 7fe6 0002     .z...}..........
   15424:	8460 0002 7b67 0002 833a 0002 7d1a 0002     `...g{..:....}..
   15434:	82ac 0002 7f7c 0002 78f0 0002 7d21 0002     ....|....x..!}..
   15444:	7a18 0002 7e97 0002 82a1 0002 7dd3 0002     .z...~.......}..
   15454:	7d92 0002 80d2 0002 79f1 0002 77fd 0002     .}.......y...w..
   15464:	7e11 0002 7981 0002 809e 0002 7d04 0002     .~...y.......}..
   15474:	7f2a 0002 7e9b 0002 7eda 0002 7bc5 0002     *....~...~...{..
   15484:	7b51 0002 82d7 0002 8310 0002 83a6 0002     Q{..............
   15494:	7a82 0002 7fec 0002 7a2e 0002 84c6 0002     .z.......z......
   154a4:	810c 0002 76e9 0002 81b6 0002 78e9 0002     .....v.......x..
   154b4:	7ad2 0002 807b 0002 835d 0002 84ec 0002     .z..{...].......
   154c4:	829b 0002 84ba 0002 7fe2 0002 7e83 0002     .............~..
   154d4:	7b0b 0002 7922 0002 87e2 0002 7ebe 0002     .{.."y.......~..
   154e4:	7a7b 0002 7ffe 0002 8096 0002 7d15 0002     {z...........}..
   154f4:	8715 0002 813c 0002 8073 0002 81f4 0002     ....<...s.......
   15504:	7805 0002 82ab 0002 841c 0002 7e37 0002     .x..........7~..
   15514:	7eb6 0002 83ad 0002 7d18 0002 7e4e 0002     .~.......}..N~..
   15524:	7fb2 0002 8608 0002 7c79 0002 7d75 0002     ........y|..u}..
   15534:	885d 0002 8454 0002 812a 0002 7996 0002     ]...T...*....y..
   15544:	7e17 0002 7e94 0002 8044 0002 7f16 0002     .~...~..D.......
   15554:	7a69 0002 7640 0002 7fef 0002 822a 0002     iz..@v......*...
   15564:	7f54 0002 7a5e 0002 7edf 0002 7ce4 0002     T...^z...~...|..
   15574:	8063 0002 7d17 0002 78e1 0002 82a8 0002     c....}...x......
   15584:	7e04 0002 8127 0002 8448 0002 7f16 0002     .~..'...H.......
   15594:	7ef2 0002 85f0 0002 84e8 0002 7f71 0002     .~..........q...
   155a4:	7af1 0002 81cd 0002 85ec 0002 82ec 0002     .z..............
   155b4:	7ccc 0002 83bb 0002 7f5c 0002 7eda 0002     .|......\....~..
   155c4:	7d47 0002 7c17 0002 7530 0002 7865 0002     G}...|..0u..ex..
   155d4:	84a4 0002 8213 0002 7f07 0002 7c16 0002     .............|..
   155e4:	7c90 0002 8380 0002 7d53 0002 8110 0002     .|......S}......
   155f4:	7f50 0002 80a2 0002 83f9 0002 7e81 0002     P............~..
   15604:	8079 0002 7bec 0002 81ec 0002 7afd 0002     y....{.......z..
   15614:	7c80 0002 7c41 0002 7ca7 0002 79de 0002     .|..A|...|...y..
   15624:	7dcf 0002 7b5d 0002 8357 0002 8135 0002     .}..]{..W...5...
   15634:	7f29 0002 7d6b 0002 84be 0002 7e05 0002     )...k}.......~..
   15644:	7c1f 0002 7ab3 0002 7cf6 0002 78ff 0002     .|...z...|...x..
   15654:	7f1f 0002 806f 0002 7c82 0002 7db4 0002     ....o....|...}..
   15664:	7f7e 0002 7da5 0002 8113 0002 7667 0002     ~....}......gv..
   15674:	81e0 0002 82db 0002 7e0a 0002 7a9f 0002     .........~...z..
   15684:	7990 0002 7cde 0002 7a15 0002 7e30 0002     .y...|...z..0~..
   15694:	8442 0002 7a18 0002 828c 0002 7c7e 0002     B....z......~|..
   156a4:	7a64 0002 80d4 0002 860c 0002 81ff 0002     dz..............
   156b4:	7b10 0002 8496 0002 8013 0002 7ce1 0002     .{...........|..
   156c4:	8377 0002 801e 0002 7df4 0002 8157 0002     w........}..W...
   156d4:	823f 0002 8221 0002 7c29 0002 7998 0002     ?...!...)|...y..
   156e4:	7bb5 0002 8614 0002 7db6 0002 8098 0002     .{.......}......
   156f4:	7eb0 0002 7bdd 0002 7ec6 0002 7cae 0002     .~...{...~...|..
   15704:	7856 0002 81bb 0002 7840 0002 8149 0002     Vx......@x..I...
   15714:	7cff 0002 8409 0002 7de7 0002 85a3 0002     .|.......}......
   15724:	7f66 0002 7bee 0002 8313 0002 7d34 0002     f....{......4}..
   15734:	83a6 0002 7805 0002 7d07 0002 7b87 0002     .....x...}...{..
   15744:	7e86 0002 7e43 0002 79eb 0002 7f56 0002     .~..C~...y..V...
   15754:	81af 0002 7c77 0002 86d1 0002 867b 0002     ....w|......{...
   15764:	7cde 0002 7f5c 0002 7acd 0002 7e61 0002     .|..\....z..a~..
   15774:	82ae 0002 8289 0002 8378 0002 7eb1 0002     ........x....~..
   15784:	7767 0002 8230 0002 831d 0002 7c00 0002     gw..0........|..
   15794:	803a 0002 80f1 0002 7460 0002 83e2 0002     :.......`t......
   157a4:	7a7f 0002 7f30 0002 829d 0002 83ba 0002     .z..0...........
   157b4:	818f 0002 8453 0002 84be 0002 8250 0002     ....S.......P...
   157c4:	7eb4 0002 85dd 0002 7bbf 0002 7fc2 0002     .~.......{......
   157d4:	7fa7 0002 7414 0002 79f0 0002 7fa6 0002     .....t...y......
   157e4:	7ef2 0002 7889 0002 7b87 0002 7baa 0002     .~...x...{...{..
   157f4:	8088 0002 7d82 0002 7a8e 0002 7e8d 0002     .....}...z...~..
   15804:	84c6 0002 8410 0002 835d 0002 801d 0002     ........].......
   15814:	84f1 0002 8049 0002 84f8 0002 851c 0002     ....I...........
   15824:	7918 0002 7879 0002 8010 0002 876c 0002     .y..yx......l...
   15834:	7b81 0002 809b 0002 8239 0002 82ef 0002     .{......9.......
   15844:	7b57 0002 7ffa 0002 7e39 0002 80c0 0002     W{......9~......
   15854:	8430 0002 7eb1 0002 812b 0002 7e7c 0002     0....~..+...|~..
   15864:	8097 0002 8035 0002 7df2 0002 806b 0002     ....5....}..k...
   15874:	86c4 0002 7951 0002 7e00 0002 8122 0002     ....Qy...~.."...
   15884:	82ff 0002 828c 0002 7bc3 0002 81fe 0002     .........{......
   15894:	7cf2 0002 7b23 0002 82dc 0002 849d 0002     .|..#{..........
   158a4:	7ea8 0002 815b 0002 784f 0002 8147 0002     .~..[...Ox..G...
   158b4:	75ad 0002 7d95 0002 83ef 0002 7eeb 0002     .u...}.......~..
   158c4:	7daa 0002 7d97 0002 7ef0 0002 8194 0002     .}...}...~......
   158d4:	7f50 0002 81fa 0002 824d 0002 7fa8 0002     P.......M.......
   158e4:	7f1a 0002 798d 0002 79e3 0002 7e82 0002     .....y...y...~..
   158f4:	7e58 0002 7e30 0002 8130 0002 8187 0002     X~..0~..0.......
   15904:	8161 0002 7b09 0002 7fc0 0002 84ab 0002     a....{..........
   15914:	7f8d 0002 7ef6 0002 80cc 0002 7f19 0002     .....~..........
   15924:	7deb 0002 791e 0002 81dc 0002 8757 0002     .}...y......W...
   15934:	7fef 0002 7b5e 0002 7c1d 0002 7c96 0002     ....^{...|...|..
   15944:	79cb 0002 7d0e 0002 834d 0002 8266 0002     .y...}..M...f...
   15954:	7fbe 0002 81fb 0002 7ee7 0002 78ce 0002     .........~...x..
   15964:	7d10 0002 7abf 0002 7c1a 0002 8422 0002     .}...z...|.."...
   15974:	8334 0002 8058 0002 7747 0002 7b58 0002     4...X...Gw..X{..
   15984:	7a19 0002 7ebc 0002 811a 0002 7d16 0002     .z...~.......}..
   15994:	821f 0002 815e 0002 7f3c 0002 7b3e 0002     ....^...<...>{..
   159a4:	80f3 0002 81ca 0002 783c 0002 7ddd 0002     ........<x...}..
   159b4:	7e3a 0002 8483 0002 7da2 0002 8072 0002     :~.......}..r...
   159c4:	804c 0002 7b34 0002 8019 0002 81a0 0002     L...4{..........
   159d4:	8087 0002 7ddf 0002 7906 0002 7ea7 0002     .....}...y...~..
   159e4:	7d66 0002 8186 0002 7b70 0002 8161 0002     f}......p{..a...
   159f4:	7a04 0002 802c 0002 7c3d 0002 824e 0002     .z..,...=|..N...
   15a04:	793c 0002 7e97 0002 8237 0002 7cb0 0002     <y...~..7....|..
   15a14:	81e8 0002 7c99 0002 8178 0002 7b24 0002     .....|..x...${..
   15a24:	7ee4 0002 797e 0002 8427 0002 8259 0002     .~..~y..'...Y...
   15a34:	8177 0002 7ef0 0002 8189 0002 801b 0002     w....~..........
   15a44:	7d6d 0002 85a4 0002 80fc 0002 7cf5 0002     m}...........|..
   15a54:	8173 0002 8108 0002 7e2a 0002 7fd2 0002     s.......*~......
   15a64:	7c1e 0002 7d88 0002 77d3 0002 8048 0002     .|...}...w..H...
   15a74:	7bb7 0002 854f 0002 7816 0002 77e8 0002     .{..O....x...w..
   15a84:	7f5e 0002 7740 0002 8199 0002 7ed7 0002     ^...@w.......~..
   15a94:	7fbd 0002 83a3 0002 821f 0002 80c7 0002     ................
   15aa4:	7e11 0002 82b2 0002 7cda 0002 7e52 0002     .~.......|..R~..
   15ab4:	7bf8 0002 7dec 0002 8044 0002 78c8 0002     .{...}..D....x..
   15ac4:	8126 0002 830a 0002 7df7 0002 82c8 0002     &........}......
   15ad4:	79b7 0002 80ce 0002 76da 0002 7c14 0002     .y.......v...|..
   15ae4:	7802 0002 85e0 0002 8128 0002 861c 0002     .x......(.......
   15af4:	7b6e 0002 7ec8 0002 861f 0002 7cd5 0002     n{...~.......|..
   15b04:	7d94 0002 7a7f 0002 7aa0 0002 7b0f 0002     .}...z...z...{..
   15b14:	7b41 0002 7dd0 0002 7bdf 0002 8051 0002     A{...}...{..Q...
   15b24:	8135 0002 8235 0002 7bc7 0002 7739 0002     5...5....{..9w..
   15b34:	7eb0 0002 8343 0002 7d43 0002 7f59 0002     .~..C...C}..Y...
   15b44:	7eba 0002 7e99 0002 802d 0002 7f9c 0002     .~...~..-.......
   15b54:	82df 0002 81d1 0002 7c87 0002 7f6d 0002     .........|..m...
   15b64:	7dca 0002 839a 0002 7c01 0002 7dcc 0002     .}.......|...}..
   15b74:	7e70 0002 7d9e 0002 80e6 0002 7e87 0002     p~...}.......~..
   15b84:	7f36 0002 7fbc 0002 8185 0002 7d56 0002     6...........V}..
   15b94:	7eb0 0002 6f73 0002 7d8a 0002 7a48 0002     .~..so...}..Hz..
   15ba4:	7c14 0002 81e2 0002 8145 0002 81c9 0002     .|......E.......
   15bb4:	8111 0002 7818 0002 7df9 0002 7b80 0002     .....x...}...{..
   15bc4:	7c15 0002 7eff 0002 87af 0002 7d59 0002     .|...~......Y}..
   15bd4:	7df4 0002 8113 0002 82b3 0002 7c3b 0002     .}..........;|..
   15be4:	7dff 0002 7a2a 0002 850a 0002 7ea9 0002     .}..*z.......~..
   15bf4:	806a 0002 7d18 0002 7ebd 0002 7a41 0002     j....}...~..Az..
   15c04:	81be 0002 7e64 0002 7fad 0002 80ef 0002     ....d~..........
   15c14:	807a 0002 7ec4 0002 82ea 0002 7f39 0002     z....~......9...
   15c24:	7c10 0002 7cf7 0002 8242 0002 8231 0002     .|...|..B...1...
   15c34:	7b94 0002 7eeb 0002 7b53 0002 7bf0 0002     .{...~..S{...{..
   15c44:	815b 0002 80de 0002 7eb9 0002 7ac1 0002     [........~...z..
   15c54:	7cb1 0002 7fea 0002 83fb 0002 806a 0002     .|..........j...
   15c64:	7c3e 0002 81fa 0002 7dd7 0002 83aa 0002     >|.......}......
   15c74:	7f14 0002 8781 0002 820d 0002 80ab 0002     ................
   15c84:	81da 0002 81c0 0002 7e71 0002 8049 0002     ........q~..I...
   15c94:	8076 0002 7b33 0002 760f 0002 7f36 0002     v...3{...v..6...
   15ca4:	8222 0002 802b 0002 7ca0 0002 7b2b 0002     "...+....|..+{..
   15cb4:	7e23 0002 7e9b 0002 77df 0002 7d5a 0002     #~...~...w..Z}..
   15cc4:	7b27 0002 82c8 0002 7a6e 0002 7aa4 0002     '{......nz...z..
   15cd4:	7e0e 0002 7bdb 0002 8360 0002 7c13 0002     .~...{..`....|..
   15ce4:	790b 0002 7cc5 0002 83f1 0002 8137 0002     .y...|......7...
   15cf4:	7d2a 0002 7aef 0002 8115 0002 7d5c 0002     *}...z......\}..
   15d04:	8730 0002 7e91 0002 82cd 0002 7a11 0002     0....~.......z..
   15d14:	7f54 0002 7e5c 0002 83ec 0002 85cf 0002     T...\~..........
   15d24:	7e97 0002 7b3a 0002 7b54 0002 7761 0002     .~..:{..T{..aw..
   15d34:	83a9 0002 82a2 0002 86a6 0002 7cf5 0002     .............|..
   15d44:	7c1f 0002 75cd 0002 775a 0002 7bd2 0002     .|...u..Zw...{..
   15d54:	8764 0002 7c60 0002 7b59 0002 815a 0002     d...`|..Y{..Z...
   15d64:	7a2e 0002 7a8e 0002 7a18 0002 78a5 0002     .z...z...z...x..
   15d74:	80ef 0002 7df4 0002 7676 0002 784b 0002     .....}..vv..Kx..
   15d84:	7dfe 0002 7f78 0002 7fe5 0002 7f8c 0002     .}..x...........
   15d94:	8432 0002 7fd6 0002 7b22 0002 8285 0002     2......."{......
   15da4:	8410 0002 72e6 0002 7218 0002 805f 0002     .....r...r.._...
   15db4:	7dee 0002 76ea 0002 7cf9 0002 82e4 0002     .}...v...|......
   15dc4:	7ff9 0002 8597 0002 7e8e 0002 7e7b 0002     .........~..{~..
   15dd4:	7b5f 0002 7f0f 0002 7e9a 0002 80ec 0002     _{.......~......
   15de4:	8228 0002 7ccc 0002 8182 0002 7ece 0002     (....|.......~..
   15df4:	7b01 0002 81f3 0002 7f32 0002 7e8c 0002     .{......2....~..
   15e04:	7c54 0002 7c45 0002 7ead 0002 7f71 0002     T|..E|...~..q...
   15e14:	7f22 0002 7fa9 0002 77f6 0002 7f29 0002     "........w..)...
   15e24:	7ad4 0002 7d3c 0002 7d78 0002 8144 0002     .z..<}..x}..D...
   15e34:	7a0c 0002 7ed2 0002 802e 0002 7dce 0002     .z...~.......}..
   15e44:	7f7f 0002 7bc1 0002 836e 0002 822a 0002     .....{..n...*...
   15e54:	7e1f 0002 7984 0002 7f41 0002 7ef8 0002     .~...y..A....~..
   15e64:	8296 0002 81e2 0002 7acf 0002 82e8 0002     .........z......
   15e74:	77d2 0002 8106 0002 7d2d 0002 7fc8 0002     .w......-}......
   15e84:	7fb2 0002 8068 0002 7a9d 0002 7eb5 0002     ....h....z...~..
   15e94:	7c03 0002 8204 0002 8258 0002 7dac 0002     .|......X....}..
   15ea4:	8052 0002 862c 0002 8033 0002 8232 0002     R...,...3...2...
   15eb4:	79db 0002 7f32 0002 7cb9 0002 7fca 0002     .y..2....|......
   15ec4:	830c 0002 7ea8 0002 76c8 0002 7ac8 0002     .....~...v...z..
   15ed4:	7e73 0002 782b 0002 8913 0002 7f5f 0002     s~..+x......_...
   15ee4:	7d0c 0002 7df9 0002 7e04 0002 7a65 0002     .}...}...~..ez..
   15ef4:	84f9 0002 89ec 0002 7c98 0002 8018 0002     .........|......
   15f04:	7bbd 0002 8467 0002 78b2 0002 7bc2 0002     .{..g....x...{..
   15f14:	857a 0002 7fa1 0002 7da4 0002 7b9d 0002     z........}...{..
   15f24:	7acc 0002 81f5 0002 8609 0002 7ce8 0002     .z...........|..
   15f34:	7dea 0002 7b8e 0002 7f89 0002 7dfd 0002     .}...{.......}..
   15f44:	7a66 0002 7fb8 0002 80ff 0002 8171 0002     fz..........q...
   15f54:	7f7b 0002 7dd9 0002 8005 0002 844c 0002     {....}......L...
   15f64:	7fc3 0002 8049 0002 84ac 0002 7da3 0002     ....I........}..
   15f74:	7a0d 0002 7c03 0002 7cee 0002 82a2 0002     .z...|...|......
   15f84:	8024 0002 7d76 0002 7d55 0002 8487 0002     $...v}..U}......
   15f94:	7be0 0002 7b5d 0002 8123 0002 833b 0002     .{..]{..#...;...
   15fa4:	7942 0002 80f8 0002 77ff 0002 7d69 0002     By.......w..i}..
   15fb4:	7bd6 0002 7d48 0002 827e 0002 7bb0 0002     .{..H}..~....{..
   15fc4:	8306 0002 7e5f 0002 7a41 0002 765d 0002     ...._~..Az..]v..
   15fd4:	7b89 0002 7e70 0002 76ea 0002 7a9d 0002     .{..p~...v...z..
   15fe4:	7c36 0002 7d38 0002 7ff0 0002 7dce 0002     6|..8}.......}..
   15ff4:	7e80 0002 7b81 0002 7957 0002 81b0 0002     .~...{..Wy......
   16004:	7e34 0002 7e8e 0002 8682 0002 836a 0002     4~...~......j...
   16014:	7ffb 0002 8857 0002 7c7c 0002 7d5c 0002     ....W...||..\}..
   16024:	7e5c 0002 7c4b 0002 7d7f 0002 7a1d 0002     \~..K|...}...z..
   16034:	7b96 0002 7982 0002 7ed3 0002 8219 0002     .{...y...~......
   16044:	7e28 0002 7bf0 0002 7aeb 0002 7bfa 0002     (~...{...z...{..
   16054:	8071 0002 8239 0002 7b28 0002 7e6c 0002     q...9...({..l~..
   16064:	7f1c 0002 7f6c 0002 7f08 0002 82a9 0002     ....l...........
   16074:	7ea5 0002 7903 0002 7e90 0002 81f6 0002     .~...y...~......
   16084:	7b03 0002 8039 0002 7da3 0002 805b 0002     .{..9....}..[...
   16094:	7922 0002 6f72 0002 7876 0002 8413 0002     "y..ro..vx......
   160a4:	7ae5 0002 7c17 0002 78a8 0002 83c0 0002     .z...|...x......
   160b4:	8181 0002 7969 0002 7e1f 0002 821d 0002     ....iy...~......
   160c4:	7dee 0002 7e7b 0002 7dd9 0002 8373 0002     .}..{~...}..s...
   160d4:	84f2 0002 7c92 0002 7dbf 0002 83dd 0002     .....|...}......
   160e4:	7e6e 0002 827e 0002 82d4 0002 7cef 0002     n~..~........|..
   160f4:	7d30 0002 7cdf 0002 7d11 0002 7858 0002     0}...|...}..Xx..
   16104:	7b8a 0002 7ce9 0002 81c9 0002 815b 0002     .{...|......[...
   16114:	7d3d 0002 7db4 0002 80d0 0002 7e2a 0002     =}...}......*~..
   16124:	82a8 0002 7e8d 0002 830f 0002 7bf0 0002     .....~.......{..
   16134:	8053 0002 7d1e 0002 7fb4 0002 7c9b 0002     S....}.......|..
   16144:	7919 0002 8198 0002 78de 0002 7925 0002     .y.......x..%y..
   16154:	7fca 0002 7e19 0002 7a42 0002 7ec2 0002     .....~..Bz...~..
   16164:	7580 0002 82de 0002 7e95 0002 8226 0002     .u.......~..&...
   16174:	7ef0 0002 7b43 0002 7eee 0002 8032 0002     .~..C{...~..2...
   16184:	7970 0002 841f 0002 7cb1 0002 7b6f 0002     py.......|..o{..
   16194:	83f1 0002 76b9 0002 7d60 0002 7e3f 0002     .....v..`}..?~..
   161a4:	7a49 0002 7b2f 0002 802d 0002 8112 0002     Iz../{..-.......
   161b4:	7d8a 0002 7a1e 0002 7c1a 0002 7f8b 0002     .}...z...|......
   161c4:	7f1e 0002 7f59 0002 7be9 0002 7c50 0002     ....Y....{..P|..
   161d4:	7d90 0002 82c0 0002 8186 0002 7fca 0002     .}..............
   161e4:	78fd 0002 8141 0002 7fb1 0002 84f2 0002     .x..A...........
   161f4:	7989 0002 7d3e 0002 80e5 0002 7939 0002     .y..>}......9y..
   16204:	816a 0002 8117 0002 7909 0002 78cd 0002     j........y...x..
   16214:	7fa4 0002 7f50 0002 7e27 0002 7e6c 0002     ....P...'~..l~..
   16224:	8016 0002 860d 0002 76f7 0002 783b 0002     .........v..;x..
   16234:	81ba 0002 8287 0002 7b14 0002 7c83 0002     .........{...|..
   16244:	80ff 0002 84f6 0002 8582 0002 7cb4 0002     .............|..
   16254:	7b2e 0002 863e 0002 8409 0002 8068 0002     .{..>.......h...
   16264:	7ab4 0002 7e17 0002 8007 0002 7b0d 0002     .z...~.......{..
   16274:	7abe 0002 8755 0002 7dfa 0002 7dba 0002     .z..U....}...}..
   16284:	7a1c 0002 809f 0002 7c75 0002 7c79 0002     .z......u|..y|..
   16294:	7f21 0002 81b7 0002 7f43 0002 7e43 0002     !.......C...C~..
   162a4:	7d5e 0002 80ac 0002 7c63 0002 7d56 0002     ^}......c|..V}..
   162b4:	7f72 0002 7bf9 0002 81c7 0002 7efb 0002     r....{.......~..
   162c4:	7b1a 0002 8063 0002 7fd7 0002 7566 0002     .{..c.......fu..
   162d4:	82f2 0002 7f35 0002 7c85 0002 7e99 0002     ....5....|...~..
   162e4:	88de 0002 7f03 0002 83ce 0002 78e0 0002     .............x..
   162f4:	81ff 0002 7fe7 0002 7c7e 0002 80e3 0002     ........~|......
   16304:	82d3 0002 8006 0002 73f8 0002 831e 0002     .........s......
   16314:	769d 0002 87bb 0002 8418 0002 87b5 0002     .v..............
   16324:	7fcf 0002 7bf5 0002 79c2 0002 7e5d 0002     .....{...y..]~..
   16334:	795b 0002 7cf6 0002 7cb8 0002 8249 0002     [y...|...|..I...
   16344:	7f8c 0002 7e6b 0002 83b1 0002 7ed2 0002     ....k~.......~..
   16354:	8274 0002 7e98 0002 809c 0002 7ddb 0002     t....~.......}..
   16364:	821a 0002 7ef7 0002 80c5 0002 7f89 0002     .....~..........
   16374:	7fbc 0002 7f92 0002 8036 0002 78e5 0002     ........6....x..
   16384:	7ecb 0002 819b 0002 8783 0002 7bfc 0002     .~...........{..
   16394:	7ac1 0002 7d85 0002 7d96 0002 7f0a 0002     .z...}...}......
   163a4:	7fb3 0002 7d44 0002 7dcd 0002 7d40 0002     ....D}...}..@}..
   163b4:	7c7e 0002 837b 0002 7d46 0002 7b02 0002     ~|..{...F}...{..
   163c4:	8073 0002 8655 0002 8206 0002 7b23 0002     s...U.......#{..
   163d4:	818b 0002 80b9 0002 84d1 0002 7f3f 0002     ............?...
   163e4:	8237 0002 7b4f 0002 7d9a 0002 7a7d 0002     7...O{...}..}z..
   163f4:	7d83 0002 7fcc 0002 7dfc 0002 81f1 0002     .}.......}......
   16404:	80eb 0002 8103 0002 7c63 0002 7ddd 0002     ........c|...}..
   16414:	80ef 0002 78b5 0002 8007 0002 7e7b 0002     .....x......{~..

00016424 <gsr_sensor>:
   16424:	3342 3334 3354 3315 332a 33a1 33a7 3346     B343T3.3*3.3.3F3
   16434:	3347 33c5 33da 337b 33ab 33d9 3367 342a     G3.3.3{3.3.3g3*4
   16444:	339f 3451 337d 32fd 33bd 33ff 3309 3339     .3Q4}3.2.3.3.393
   16454:	33a2 3370 335c 337c 3318 3364 3339 3399     .3p3\3|3.3d393.3
   16464:	336c 3376 32e1 3323 32f1 3347 3324 32db     l3v3.2#3.2G3$3.2
   16474:	3386 3417 33b6 33c6 3380 337e 33ed 32d0     .3.4.3.3.3~3.3.2
   16484:	329e 3377 3375 331e 33b7 3401 32d4 32f6     .2w3u3.3.3.4.2.2
   16494:	33b3 3394 339e 33e1 3277 330e 32e7 33ab     .3.3.3.3w2.3.2.3
   164a4:	32e6 3346 336f 3385 33d5 3359 3302 33e9     .2F3o3.3.3Y3.3.3
   164b4:	3311 3317 333b 33bb 32df 32df 32d3 3362     .3.3;3.3.2.2.2b3
   164c4:	331d 3333 32e8 331f 3384 334f 32f9 3442     .333.2.3.3O3.2B4
   164d4:	336e 32c6 333e 33cc 3383 33bc 3317 32b7     n3.2>3.3.3.3.3.2
   164e4:	32cc 3317 33ab 334f 3362 340f 33bb 3342     .2.3.3O3b3.4.3B3
   164f4:	3327 33b5 3322 332c 32d4 332a 3365 336d     '3.3"3,3.2*3e3m3
   16504:	3355 335e 33ef 3285 3316 33b9 329e 336d     U3^3.3.2.3.3.2m3
   16514:	3338 3269 320f 32ab 32e1 31eb 329b 3228     83i2.2.2.2.1.2(2
   16524:	3266 3266 32b1 3245 3298 32f5 329a 31fd     f2f2.2E2.2.2.2.1
   16534:	327b 322f 32c6 32ad 3389 3254 3311 329d     {2/2.2.2.3T2.3.2
   16544:	32e7 3320 3265 32d8 3311 3303 32c0 3302     .2 3e2.2.3.3.2.3
   16554:	3363 32f7 32ca 3338 3344 3388 330c 3260     c3.2.283D3.3.3`2
   16564:	3371 3360 334f 3304 3312 32dc 3320 3315     q3`3O3.3.3.2 3.3
   16574:	330a 32d2 3358 32f9 340d 32c9 3305 3370     .3.2X3.2.4.2.3p3
   16584:	3325 33ce 33c2 331f 332b 33d5 3353 338a     %3.3.3.3+3.3S3.3
   16594:	32ff 32fa 33fe 338a 331d 32bb 3359 3333     .2.2.3.3.3.2Y333
   165a4:	338c 336a 3346 336d 3324 3390 32fb 3377     .3j3F3m3$3.3.2w3

000165b4 <temp_sensor>:
   165b4:	77b0 41f4 9e5f 41f5 23f5 41f5 5f96 41f4     .w.A_..A.#.A._.A
   165c4:	a1b8 41f5 a949 41f5 53e5 41f6 6b58 41f5     ...AI..A.S.AXk.A
   165d4:	b805 41f6 e206 41f7 025e 41f6 bb7d 41f4     ...A...A^..A}..A
   165e4:	4578 41f7 6357 41f6 dc31 41f7 52dd 41f6     xE.AWc.A1..A.R.A
   165f4:	14d1 41f9 1881 41f9 41b4 41f8 1618 41f9     ...A...A.A.A...A
   16604:	25f9 41fb 2196 41fa 8eb3 41f9 fca0 41f9     .%.A.!.A...A...A
   16614:	830d 41fb 053e 41fb 77fe 41fb cc84 41fa     ...A>..A.w.A...A
   16624:	6ab1 41fd d244 41fb 7f9e 41fa 3930 41fd     .j.AD..A...A09.A
   16634:	f20a 41fc 01e5 41fd a76d 41fb ea44 41fc     ...A...Am..AD..A
   16644:	76cb 41fc 82a3 41fe 1f48 41fd 622b 41fc     .v.A...AH..A+b.A

00016654 <am_hal_cachectrl_defaults>:
   16654:	0308 0000                                   ....

00016658 <g_AM_HAL_GPIO_DISABLE>:
   16658:	0003 0000                                   ....

0001665c <g_AM_HAL_GPIO_OUTPUT>:
   1665c:	0403 0000                                   ....

00016660 <g_AM_HAL_GPIO_TRISTATE>:
   16660:	0c03 0000                                   ....

00016664 <g_ui8Bit76Capabilities>:
   16664:	0101 0280 0180 8001 0101 8080 8080 8080     ................
   16674:	8080 8080 8008 8080 0180 0180 8080 8080     ................
   16684:	8080 8080 0402 0180 0401 0101 8080 8080     ................
   16694:	0101 0000                                   ....

00016698 <g_ui8Inpen>:
   16698:	2323 6227 03a1 1087 5303 e100 8151 5541     ##'b.....S..Q.AU
   166a8:	c405 4080 b101 4140 3114 31a0 f100 1180     ...@..@A.1.1....
   166b8:	2191 11c1 11e5 3045 0037 3130 7100 4000     .!....E07.01.q.@
   166c8:	3130 0000                                   01..

000166cc <g_ui8NCEtable>:
   166cc:	4232 1352 1202 6022 4333 2153 4030 2050     2BR..."`3CS!0@P 
   166dc:	4131 1151 ffff ffff ffff ffff 4131 6051     1AQ.........1AQ`
   166ec:	4030 0050 4333 2353 4232 6052 1000 3020     0@P.3CS#2BR`.. 0
   166fc:	4030 6150 4131 0151 1202 4222 1303 6023     0@Pa1AQ..."B..#`
   1670c:	1000 5020 1101 4121 1202 3222 1303 6033     .. P..!A.."2..3`
   1671c:	4131 2151 4232 2252 4333 0353 1000 4020     1AQ!2BR"3CS... @
   1672c:	1101 5121 4232 0252 4333 1353 4030 1050     ..!Q2BR.3CS.0@P.
   1673c:	4131 6051 4232 1252 4333 0353 1000 4020     1AQ`2BR.3CS... @
   1674c:	1101 6121 1202 5222 1303 3323 1000 3020     ..!a.."R..#3.. 0
   1675c:	4131 6151 4232 0252 1303 5333 ffff ffff     1AQa2BR...3S....
   1676c:	ffff ffff 1101 6121 1000 5020 1101 6121     ......!a.. P..!a
   1677c:	1202 5222 4333 1353 4030 6150 1101 3121     .."R3CS.0@Pa..!1
   1678c:	1202 3222 1303 4323                         .."2..#C

00016794 <g_ui8nCEpins>:
   16794:	0707 0207 0802 0008 0202 0102 0101 0101     ................
   167a4:	0101 0101 0101 0101 0101 0101 0101 0101     ................
   167b4:	0101 0101 0101 0801 0008 0101 0101 0101     ................
   167c4:	0101 0000                                   ....

000167c8 <g_am_hal_mcuctrl_flash_size>:
   167c8:	4000 0000 8000 0000 0000 0001 0000 0002     .@..............
   167d8:	0000 0004 0000 0008 0000 0010 0000 0020     .............. .
   167e8:	0000 0018 0000 0000 0000 0000 0000 0000     ................
	...

00016808 <g_am_hal_mcuctrl_sram_size>:
   16808:	4000 0000 8000 0000 0000 0001 0000 0002     .@..............
   16818:	0000 0004 0000 0008 0000 0010 0000 0006     ................
   16828:	0000 000c 0000 0000 0000 0000 0000 0000     ................
	...

00016848 <am_hal_pwrctrl_memory_control>:
	...
   16860:	0001 0000 0001 0000 0001 0000 1fff 0000     ................
   16870:	1fff 0000 0001 0000 0003 0000 0003 0000     ................
   16880:	0003 0000 1fff 0000 1fff 0000 0003 0000     ................
   16890:	0007 0000 0007 0000 0007 0000 1fff 0000     ................
   168a0:	1fff 0000 0007 0000 000f 0000 000f 0000     ................
   168b0:	000f 0000 1fff 0000 1fff 0000 000f 0000     ................
   168c0:	001f 0000 001f 0000 001f 0000 1fff 0000     ................
   168d0:	1fff 0000 001f 0000 003f 0000 003f 0000     ........?...?...
   168e0:	003f 0000 1fff 0000 1fff 0000 003f 0000     ?...........?...
   168f0:	007f 0000 007f 0000 007f 0000 1fff 0000     ................
   16900:	1fff 0000 007f 0000 00ff 0000 00ff 0000     ................
   16910:	00ff 0000 1fff 0000 1fff 0000 00ff 0000     ................
   16920:	01ff 0000 01ff 0000 01ff 0000 1fff 0000     ................
   16930:	1fff 0000 01ff 0000 03ff 0000 03ff 0000     ................
   16940:	03ff 0000 1fff 0000 1fff 0000 03ff 0000     ................
   16950:	07ff 0000 07ff 0000 07ff 0000 1fff 0000     ................
   16960:	1fff 0000 07ff 0000 0fff 0000 0fff 0000     ................
   16970:	0fff 0000 1fff 0000 1fff 0000 0fff 0000     ................
   16980:	1fff 0000 1fff 0000 1fff 0000 1fff 0000     ................
   16990:	1fff 0000 1fff 0000 2000 0000 2000 0000     ......... ... ..
   169a0:	2000 0000 6000 0000 6000 0000 2000 0000     . ...`...`... ..
   169b0:	6000 0000 6000 0000 6000 0000 6000 0000     .`...`...`...`..
   169c0:	6000 0000 6000 0000 0000 c000 0000 0000     .`...`..........
   169d0:	0000 c000 0000 c000 0000 0000 0000 8000     ................
   169e0:	7fff c000 7fff 0000 7fff c000 7fff c000     ................
   169f0:	7fff 0000 7fff 8000                         ........

000169f8 <am_hal_pwrctrl_peripheral_control>:
	...
   16a04:	0001 0000 0004 0000 0004 0000 0002 0000     ................
   16a14:	0008 0000 0008 0000 0004 0000 0008 0000     ................
   16a24:	0008 0000 0008 0000 0008 0000 0008 0000     ................
   16a34:	0010 0000 0010 0000 0010 0000 0020 0000     ............ ...
   16a44:	0010 0000 0010 0000 0040 0000 0010 0000     ........@.......
   16a54:	0010 0000 0080 0000 0004 0000 0004 0000     ................
   16a64:	0100 0000 0004 0000 0004 0000 0200 0000     ................
   16a74:	0020 0000 0020 0000 0400 0000 0004 0000      ... ...........
   16a84:	0004 0000 0800 0000 0040 0000 0040 0000     ........@...@...
   16a94:	1000 0000 0080 0000 0080 0000 2000 0000     ............. ..
   16aa4:	0100 0000 0100 0000                         ........
